/*
 * Copyright 2018-2020 Yury Gribov
 *
 * The MIT License (MIT)
 *
 * Use of this source code is governed by MIT license that can be
 * found in the LICENSE.txt file.
 */

  .data

  .globl _libX11_so_tramp_table
  .hidden _libX11_so_tramp_table
  .align 8
_libX11_so_tramp_table:
  .zero 9440

  .text

  .globl _libX11_so_tramp_resolve
  .hidden _libX11_so_tramp_resolve

  .globl _libX11_so_save_regs_and_resolve
  .hidden _libX11_so_save_regs_and_resolve
  .type _libX11_so_save_regs_and_resolve, %function
_libX11_so_save_regs_and_resolve:
  .cfi_startproc

#define PUSH_REG(reg) pushq %reg ; .cfi_adjust_cfa_offset 8; .cfi_rel_offset reg, 0
#define POP_REG(reg) popq %reg ; .cfi_adjust_cfa_offset -8; .cfi_restore reg

#define DEC_STACK(d) subq $d, %rsp; .cfi_adjust_cfa_offset d
#define INC_STACK(d) addq $d, %rsp; .cfi_adjust_cfa_offset -d

#define PUSH_XMM_REG(reg) DEC_STACK(16); movdqa %reg, (%rsp); .cfi_rel_offset reg, 0
#define POP_XMM_REG(reg) movdqa (%rsp), %reg; .cfi_restore reg; INC_STACK(16)

  // Slow path which calls dlsym, taken only on first call.
  // All registers are stored to handle arbitrary calling conventions
  // (except x87 FPU registers which do not have to be preserved).
  // For Dwarf directives, read https://www.imperialviolet.org/2017/01/18/cfi.html.

  // FIXME: AVX (YMM, ZMM) registers are NOT saved to simplify code.

  PUSH_REG(rdi)  // 16
  mov 0x10(%rsp), %rdi
  PUSH_REG(rax)
  PUSH_REG(rbx)  // 16
  PUSH_REG(rcx)
  PUSH_REG(rdx)  // 16
  PUSH_REG(rbp)
  PUSH_REG(rsi)  // 16
  PUSH_REG(r8)
  PUSH_REG(r9)  // 16
  PUSH_REG(r10)
  PUSH_REG(r11)  // 16
  PUSH_REG(r12)
  PUSH_REG(r13)  // 16
  PUSH_REG(r14)
  PUSH_REG(r15)  // 16
  PUSH_XMM_REG(xmm0)
  PUSH_XMM_REG(xmm1)
  PUSH_XMM_REG(xmm2)
  PUSH_XMM_REG(xmm3)
  PUSH_XMM_REG(xmm4)
  PUSH_XMM_REG(xmm5)
  PUSH_XMM_REG(xmm6)
  PUSH_XMM_REG(xmm7)

  // Stack is just 8-byte aligned but callee will re-align to 16
  call _libX11_so_tramp_resolve

  POP_XMM_REG(xmm7)
  POP_XMM_REG(xmm6)
  POP_XMM_REG(xmm5)
  POP_XMM_REG(xmm4)
  POP_XMM_REG(xmm3)
  POP_XMM_REG(xmm2)
  POP_XMM_REG(xmm1)
  POP_XMM_REG(xmm0)  // 16
  POP_REG(r15)
  POP_REG(r14)  // 16
  POP_REG(r13)
  POP_REG(r12)  // 16
  POP_REG(r11)
  POP_REG(r10)  // 16
  POP_REG(r9)
  POP_REG(r8)  // 16
  POP_REG(rsi)
  POP_REG(rbp)  // 16
  POP_REG(rdx)
  POP_REG(rcx)  // 16
  POP_REG(rbx)
  POP_REG(rax)  // 16
  POP_REG(rdi)

  ret

  .cfi_endproc

/*
 * Copyright 2018-2021 Yury Gribov
 *
 * The MIT License (MIT)
 *
 * Use of this source code is governed by MIT license that can be
 * found in the LICENSE.txt file.
 */

  .globl KeySymToUcs4
  .p2align 4
  .type KeySymToUcs4, %function
#ifdef IMPLIB_HIDDEN_SHIMS
  .hidden KeySymToUcs4
#endif
KeySymToUcs4:
  .cfi_startproc
  // Intel opt. manual says to
  // "make the fall-through code following a conditional branch be the likely target for a branch with a forward target"
  // to hint static predictor.
  cmpq $0, _libX11_so_tramp_table+0(%rip)
  je 2f
1:
  jmp *_libX11_so_tramp_table+0(%rip)
2:
  pushq $0
  .cfi_adjust_cfa_offset 8
  call _libX11_so_save_regs_and_resolve
  addq $8, %rsp
  .cfi_adjust_cfa_offset -8
  jmp 1b
  .cfi_endproc

/*
 * Copyright 2018-2021 Yury Gribov
 *
 * The MIT License (MIT)
 *
 * Use of this source code is governed by MIT license that can be
 * found in the LICENSE.txt file.
 */

  .globl XActivateScreenSaver
  .p2align 4
  .type XActivateScreenSaver, %function
#ifdef IMPLIB_HIDDEN_SHIMS
  .hidden XActivateScreenSaver
#endif
XActivateScreenSaver:
  .cfi_startproc
  // Intel opt. manual says to
  // "make the fall-through code following a conditional branch be the likely target for a branch with a forward target"
  // to hint static predictor.
  cmpq $0, _libX11_so_tramp_table+8(%rip)
  je 2f
1:
  jmp *_libX11_so_tramp_table+8(%rip)
2:
  pushq $1
  .cfi_adjust_cfa_offset 8
  call _libX11_so_save_regs_and_resolve
  addq $8, %rsp
  .cfi_adjust_cfa_offset -8
  jmp 1b
  .cfi_endproc

/*
 * Copyright 2018-2021 Yury Gribov
 *
 * The MIT License (MIT)
 *
 * Use of this source code is governed by MIT license that can be
 * found in the LICENSE.txt file.
 */

  .globl XAddConnectionWatch
  .p2align 4
  .type XAddConnectionWatch, %function
#ifdef IMPLIB_HIDDEN_SHIMS
  .hidden XAddConnectionWatch
#endif
XAddConnectionWatch:
  .cfi_startproc
  // Intel opt. manual says to
  // "make the fall-through code following a conditional branch be the likely target for a branch with a forward target"
  // to hint static predictor.
  cmpq $0, _libX11_so_tramp_table+16(%rip)
  je 2f
1:
  jmp *_libX11_so_tramp_table+16(%rip)
2:
  pushq $2
  .cfi_adjust_cfa_offset 8
  call _libX11_so_save_regs_and_resolve
  addq $8, %rsp
  .cfi_adjust_cfa_offset -8
  jmp 1b
  .cfi_endproc

/*
 * Copyright 2018-2021 Yury Gribov
 *
 * The MIT License (MIT)
 *
 * Use of this source code is governed by MIT license that can be
 * found in the LICENSE.txt file.
 */

  .globl XAddExtension
  .p2align 4
  .type XAddExtension, %function
#ifdef IMPLIB_HIDDEN_SHIMS
  .hidden XAddExtension
#endif
XAddExtension:
  .cfi_startproc
  // Intel opt. manual says to
  // "make the fall-through code following a conditional branch be the likely target for a branch with a forward target"
  // to hint static predictor.
  cmpq $0, _libX11_so_tramp_table+24(%rip)
  je 2f
1:
  jmp *_libX11_so_tramp_table+24(%rip)
2:
  pushq $3
  .cfi_adjust_cfa_offset 8
  call _libX11_so_save_regs_and_resolve
  addq $8, %rsp
  .cfi_adjust_cfa_offset -8
  jmp 1b
  .cfi_endproc

/*
 * Copyright 2018-2021 Yury Gribov
 *
 * The MIT License (MIT)
 *
 * Use of this source code is governed by MIT license that can be
 * found in the LICENSE.txt file.
 */

  .globl XAddHost
  .p2align 4
  .type XAddHost, %function
#ifdef IMPLIB_HIDDEN_SHIMS
  .hidden XAddHost
#endif
XAddHost:
  .cfi_startproc
  // Intel opt. manual says to
  // "make the fall-through code following a conditional branch be the likely target for a branch with a forward target"
  // to hint static predictor.
  cmpq $0, _libX11_so_tramp_table+32(%rip)
  je 2f
1:
  jmp *_libX11_so_tramp_table+32(%rip)
2:
  pushq $4
  .cfi_adjust_cfa_offset 8
  call _libX11_so_save_regs_and_resolve
  addq $8, %rsp
  .cfi_adjust_cfa_offset -8
  jmp 1b
  .cfi_endproc

/*
 * Copyright 2018-2021 Yury Gribov
 *
 * The MIT License (MIT)
 *
 * Use of this source code is governed by MIT license that can be
 * found in the LICENSE.txt file.
 */

  .globl XAddHosts
  .p2align 4
  .type XAddHosts, %function
#ifdef IMPLIB_HIDDEN_SHIMS
  .hidden XAddHosts
#endif
XAddHosts:
  .cfi_startproc
  // Intel opt. manual says to
  // "make the fall-through code following a conditional branch be the likely target for a branch with a forward target"
  // to hint static predictor.
  cmpq $0, _libX11_so_tramp_table+40(%rip)
  je 2f
1:
  jmp *_libX11_so_tramp_table+40(%rip)
2:
  pushq $5
  .cfi_adjust_cfa_offset 8
  call _libX11_so_save_regs_and_resolve
  addq $8, %rsp
  .cfi_adjust_cfa_offset -8
  jmp 1b
  .cfi_endproc

/*
 * Copyright 2018-2021 Yury Gribov
 *
 * The MIT License (MIT)
 *
 * Use of this source code is governed by MIT license that can be
 * found in the LICENSE.txt file.
 */

  .globl XAddPixel
  .p2align 4
  .type XAddPixel, %function
#ifdef IMPLIB_HIDDEN_SHIMS
  .hidden XAddPixel
#endif
XAddPixel:
  .cfi_startproc
  // Intel opt. manual says to
  // "make the fall-through code following a conditional branch be the likely target for a branch with a forward target"
  // to hint static predictor.
  cmpq $0, _libX11_so_tramp_table+48(%rip)
  je 2f
1:
  jmp *_libX11_so_tramp_table+48(%rip)
2:
  pushq $6
  .cfi_adjust_cfa_offset 8
  call _libX11_so_save_regs_and_resolve
  addq $8, %rsp
  .cfi_adjust_cfa_offset -8
  jmp 1b
  .cfi_endproc

/*
 * Copyright 2018-2021 Yury Gribov
 *
 * The MIT License (MIT)
 *
 * Use of this source code is governed by MIT license that can be
 * found in the LICENSE.txt file.
 */

  .globl XAddToExtensionList
  .p2align 4
  .type XAddToExtensionList, %function
#ifdef IMPLIB_HIDDEN_SHIMS
  .hidden XAddToExtensionList
#endif
XAddToExtensionList:
  .cfi_startproc
  // Intel opt. manual says to
  // "make the fall-through code following a conditional branch be the likely target for a branch with a forward target"
  // to hint static predictor.
  cmpq $0, _libX11_so_tramp_table+56(%rip)
  je 2f
1:
  jmp *_libX11_so_tramp_table+56(%rip)
2:
  pushq $7
  .cfi_adjust_cfa_offset 8
  call _libX11_so_save_regs_and_resolve
  addq $8, %rsp
  .cfi_adjust_cfa_offset -8
  jmp 1b
  .cfi_endproc

/*
 * Copyright 2018-2021 Yury Gribov
 *
 * The MIT License (MIT)
 *
 * Use of this source code is governed by MIT license that can be
 * found in the LICENSE.txt file.
 */

  .globl XAddToSaveSet
  .p2align 4
  .type XAddToSaveSet, %function
#ifdef IMPLIB_HIDDEN_SHIMS
  .hidden XAddToSaveSet
#endif
XAddToSaveSet:
  .cfi_startproc
  // Intel opt. manual says to
  // "make the fall-through code following a conditional branch be the likely target for a branch with a forward target"
  // to hint static predictor.
  cmpq $0, _libX11_so_tramp_table+64(%rip)
  je 2f
1:
  jmp *_libX11_so_tramp_table+64(%rip)
2:
  pushq $8
  .cfi_adjust_cfa_offset 8
  call _libX11_so_save_regs_and_resolve
  addq $8, %rsp
  .cfi_adjust_cfa_offset -8
  jmp 1b
  .cfi_endproc

/*
 * Copyright 2018-2021 Yury Gribov
 *
 * The MIT License (MIT)
 *
 * Use of this source code is governed by MIT license that can be
 * found in the LICENSE.txt file.
 */

  .globl XAllPlanes
  .p2align 4
  .type XAllPlanes, %function
#ifdef IMPLIB_HIDDEN_SHIMS
  .hidden XAllPlanes
#endif
XAllPlanes:
  .cfi_startproc
  // Intel opt. manual says to
  // "make the fall-through code following a conditional branch be the likely target for a branch with a forward target"
  // to hint static predictor.
  cmpq $0, _libX11_so_tramp_table+72(%rip)
  je 2f
1:
  jmp *_libX11_so_tramp_table+72(%rip)
2:
  pushq $9
  .cfi_adjust_cfa_offset 8
  call _libX11_so_save_regs_and_resolve
  addq $8, %rsp
  .cfi_adjust_cfa_offset -8
  jmp 1b
  .cfi_endproc

/*
 * Copyright 2018-2021 Yury Gribov
 *
 * The MIT License (MIT)
 *
 * Use of this source code is governed by MIT license that can be
 * found in the LICENSE.txt file.
 */

  .globl XAllocClassHint
  .p2align 4
  .type XAllocClassHint, %function
#ifdef IMPLIB_HIDDEN_SHIMS
  .hidden XAllocClassHint
#endif
XAllocClassHint:
  .cfi_startproc
  // Intel opt. manual says to
  // "make the fall-through code following a conditional branch be the likely target for a branch with a forward target"
  // to hint static predictor.
  cmpq $0, _libX11_so_tramp_table+80(%rip)
  je 2f
1:
  jmp *_libX11_so_tramp_table+80(%rip)
2:
  pushq $10
  .cfi_adjust_cfa_offset 8
  call _libX11_so_save_regs_and_resolve
  addq $8, %rsp
  .cfi_adjust_cfa_offset -8
  jmp 1b
  .cfi_endproc

/*
 * Copyright 2018-2021 Yury Gribov
 *
 * The MIT License (MIT)
 *
 * Use of this source code is governed by MIT license that can be
 * found in the LICENSE.txt file.
 */

  .globl XAllocColor
  .p2align 4
  .type XAllocColor, %function
#ifdef IMPLIB_HIDDEN_SHIMS
  .hidden XAllocColor
#endif
XAllocColor:
  .cfi_startproc
  // Intel opt. manual says to
  // "make the fall-through code following a conditional branch be the likely target for a branch with a forward target"
  // to hint static predictor.
  cmpq $0, _libX11_so_tramp_table+88(%rip)
  je 2f
1:
  jmp *_libX11_so_tramp_table+88(%rip)
2:
  pushq $11
  .cfi_adjust_cfa_offset 8
  call _libX11_so_save_regs_and_resolve
  addq $8, %rsp
  .cfi_adjust_cfa_offset -8
  jmp 1b
  .cfi_endproc

/*
 * Copyright 2018-2021 Yury Gribov
 *
 * The MIT License (MIT)
 *
 * Use of this source code is governed by MIT license that can be
 * found in the LICENSE.txt file.
 */

  .globl XAllocColorCells
  .p2align 4
  .type XAllocColorCells, %function
#ifdef IMPLIB_HIDDEN_SHIMS
  .hidden XAllocColorCells
#endif
XAllocColorCells:
  .cfi_startproc
  // Intel opt. manual says to
  // "make the fall-through code following a conditional branch be the likely target for a branch with a forward target"
  // to hint static predictor.
  cmpq $0, _libX11_so_tramp_table+96(%rip)
  je 2f
1:
  jmp *_libX11_so_tramp_table+96(%rip)
2:
  pushq $12
  .cfi_adjust_cfa_offset 8
  call _libX11_so_save_regs_and_resolve
  addq $8, %rsp
  .cfi_adjust_cfa_offset -8
  jmp 1b
  .cfi_endproc

/*
 * Copyright 2018-2021 Yury Gribov
 *
 * The MIT License (MIT)
 *
 * Use of this source code is governed by MIT license that can be
 * found in the LICENSE.txt file.
 */

  .globl XAllocColorPlanes
  .p2align 4
  .type XAllocColorPlanes, %function
#ifdef IMPLIB_HIDDEN_SHIMS
  .hidden XAllocColorPlanes
#endif
XAllocColorPlanes:
  .cfi_startproc
  // Intel opt. manual says to
  // "make the fall-through code following a conditional branch be the likely target for a branch with a forward target"
  // to hint static predictor.
  cmpq $0, _libX11_so_tramp_table+104(%rip)
  je 2f
1:
  jmp *_libX11_so_tramp_table+104(%rip)
2:
  pushq $13
  .cfi_adjust_cfa_offset 8
  call _libX11_so_save_regs_and_resolve
  addq $8, %rsp
  .cfi_adjust_cfa_offset -8
  jmp 1b
  .cfi_endproc

/*
 * Copyright 2018-2021 Yury Gribov
 *
 * The MIT License (MIT)
 *
 * Use of this source code is governed by MIT license that can be
 * found in the LICENSE.txt file.
 */

  .globl XAllocIconSize
  .p2align 4
  .type XAllocIconSize, %function
#ifdef IMPLIB_HIDDEN_SHIMS
  .hidden XAllocIconSize
#endif
XAllocIconSize:
  .cfi_startproc
  // Intel opt. manual says to
  // "make the fall-through code following a conditional branch be the likely target for a branch with a forward target"
  // to hint static predictor.
  cmpq $0, _libX11_so_tramp_table+112(%rip)
  je 2f
1:
  jmp *_libX11_so_tramp_table+112(%rip)
2:
  pushq $14
  .cfi_adjust_cfa_offset 8
  call _libX11_so_save_regs_and_resolve
  addq $8, %rsp
  .cfi_adjust_cfa_offset -8
  jmp 1b
  .cfi_endproc

/*
 * Copyright 2018-2021 Yury Gribov
 *
 * The MIT License (MIT)
 *
 * Use of this source code is governed by MIT license that can be
 * found in the LICENSE.txt file.
 */

  .globl XAllocNamedColor
  .p2align 4
  .type XAllocNamedColor, %function
#ifdef IMPLIB_HIDDEN_SHIMS
  .hidden XAllocNamedColor
#endif
XAllocNamedColor:
  .cfi_startproc
  // Intel opt. manual says to
  // "make the fall-through code following a conditional branch be the likely target for a branch with a forward target"
  // to hint static predictor.
  cmpq $0, _libX11_so_tramp_table+120(%rip)
  je 2f
1:
  jmp *_libX11_so_tramp_table+120(%rip)
2:
  pushq $15
  .cfi_adjust_cfa_offset 8
  call _libX11_so_save_regs_and_resolve
  addq $8, %rsp
  .cfi_adjust_cfa_offset -8
  jmp 1b
  .cfi_endproc

/*
 * Copyright 2018-2021 Yury Gribov
 *
 * The MIT License (MIT)
 *
 * Use of this source code is governed by MIT license that can be
 * found in the LICENSE.txt file.
 */

  .globl XAllocSizeHints
  .p2align 4
  .type XAllocSizeHints, %function
#ifdef IMPLIB_HIDDEN_SHIMS
  .hidden XAllocSizeHints
#endif
XAllocSizeHints:
  .cfi_startproc
  // Intel opt. manual says to
  // "make the fall-through code following a conditional branch be the likely target for a branch with a forward target"
  // to hint static predictor.
  cmpq $0, _libX11_so_tramp_table+128(%rip)
  je 2f
1:
  jmp *_libX11_so_tramp_table+128(%rip)
2:
  pushq $16
  .cfi_adjust_cfa_offset 8
  call _libX11_so_save_regs_and_resolve
  addq $8, %rsp
  .cfi_adjust_cfa_offset -8
  jmp 1b
  .cfi_endproc

/*
 * Copyright 2018-2021 Yury Gribov
 *
 * The MIT License (MIT)
 *
 * Use of this source code is governed by MIT license that can be
 * found in the LICENSE.txt file.
 */

  .globl XAllocStandardColormap
  .p2align 4
  .type XAllocStandardColormap, %function
#ifdef IMPLIB_HIDDEN_SHIMS
  .hidden XAllocStandardColormap
#endif
XAllocStandardColormap:
  .cfi_startproc
  // Intel opt. manual says to
  // "make the fall-through code following a conditional branch be the likely target for a branch with a forward target"
  // to hint static predictor.
  cmpq $0, _libX11_so_tramp_table+136(%rip)
  je 2f
1:
  jmp *_libX11_so_tramp_table+136(%rip)
2:
  pushq $17
  .cfi_adjust_cfa_offset 8
  call _libX11_so_save_regs_and_resolve
  addq $8, %rsp
  .cfi_adjust_cfa_offset -8
  jmp 1b
  .cfi_endproc

/*
 * Copyright 2018-2021 Yury Gribov
 *
 * The MIT License (MIT)
 *
 * Use of this source code is governed by MIT license that can be
 * found in the LICENSE.txt file.
 */

  .globl XAllocWMHints
  .p2align 4
  .type XAllocWMHints, %function
#ifdef IMPLIB_HIDDEN_SHIMS
  .hidden XAllocWMHints
#endif
XAllocWMHints:
  .cfi_startproc
  // Intel opt. manual says to
  // "make the fall-through code following a conditional branch be the likely target for a branch with a forward target"
  // to hint static predictor.
  cmpq $0, _libX11_so_tramp_table+144(%rip)
  je 2f
1:
  jmp *_libX11_so_tramp_table+144(%rip)
2:
  pushq $18
  .cfi_adjust_cfa_offset 8
  call _libX11_so_save_regs_and_resolve
  addq $8, %rsp
  .cfi_adjust_cfa_offset -8
  jmp 1b
  .cfi_endproc

/*
 * Copyright 2018-2021 Yury Gribov
 *
 * The MIT License (MIT)
 *
 * Use of this source code is governed by MIT license that can be
 * found in the LICENSE.txt file.
 */

  .globl XAllowEvents
  .p2align 4
  .type XAllowEvents, %function
#ifdef IMPLIB_HIDDEN_SHIMS
  .hidden XAllowEvents
#endif
XAllowEvents:
  .cfi_startproc
  // Intel opt. manual says to
  // "make the fall-through code following a conditional branch be the likely target for a branch with a forward target"
  // to hint static predictor.
  cmpq $0, _libX11_so_tramp_table+152(%rip)
  je 2f
1:
  jmp *_libX11_so_tramp_table+152(%rip)
2:
  pushq $19
  .cfi_adjust_cfa_offset 8
  call _libX11_so_save_regs_and_resolve
  addq $8, %rsp
  .cfi_adjust_cfa_offset -8
  jmp 1b
  .cfi_endproc

/*
 * Copyright 2018-2021 Yury Gribov
 *
 * The MIT License (MIT)
 *
 * Use of this source code is governed by MIT license that can be
 * found in the LICENSE.txt file.
 */

  .globl XAutoRepeatOff
  .p2align 4
  .type XAutoRepeatOff, %function
#ifdef IMPLIB_HIDDEN_SHIMS
  .hidden XAutoRepeatOff
#endif
XAutoRepeatOff:
  .cfi_startproc
  // Intel opt. manual says to
  // "make the fall-through code following a conditional branch be the likely target for a branch with a forward target"
  // to hint static predictor.
  cmpq $0, _libX11_so_tramp_table+160(%rip)
  je 2f
1:
  jmp *_libX11_so_tramp_table+160(%rip)
2:
  pushq $20
  .cfi_adjust_cfa_offset 8
  call _libX11_so_save_regs_and_resolve
  addq $8, %rsp
  .cfi_adjust_cfa_offset -8
  jmp 1b
  .cfi_endproc

/*
 * Copyright 2018-2021 Yury Gribov
 *
 * The MIT License (MIT)
 *
 * Use of this source code is governed by MIT license that can be
 * found in the LICENSE.txt file.
 */

  .globl XAutoRepeatOn
  .p2align 4
  .type XAutoRepeatOn, %function
#ifdef IMPLIB_HIDDEN_SHIMS
  .hidden XAutoRepeatOn
#endif
XAutoRepeatOn:
  .cfi_startproc
  // Intel opt. manual says to
  // "make the fall-through code following a conditional branch be the likely target for a branch with a forward target"
  // to hint static predictor.
  cmpq $0, _libX11_so_tramp_table+168(%rip)
  je 2f
1:
  jmp *_libX11_so_tramp_table+168(%rip)
2:
  pushq $21
  .cfi_adjust_cfa_offset 8
  call _libX11_so_save_regs_and_resolve
  addq $8, %rsp
  .cfi_adjust_cfa_offset -8
  jmp 1b
  .cfi_endproc

/*
 * Copyright 2018-2021 Yury Gribov
 *
 * The MIT License (MIT)
 *
 * Use of this source code is governed by MIT license that can be
 * found in the LICENSE.txt file.
 */

  .globl XBaseFontNameListOfFontSet
  .p2align 4
  .type XBaseFontNameListOfFontSet, %function
#ifdef IMPLIB_HIDDEN_SHIMS
  .hidden XBaseFontNameListOfFontSet
#endif
XBaseFontNameListOfFontSet:
  .cfi_startproc
  // Intel opt. manual says to
  // "make the fall-through code following a conditional branch be the likely target for a branch with a forward target"
  // to hint static predictor.
  cmpq $0, _libX11_so_tramp_table+176(%rip)
  je 2f
1:
  jmp *_libX11_so_tramp_table+176(%rip)
2:
  pushq $22
  .cfi_adjust_cfa_offset 8
  call _libX11_so_save_regs_and_resolve
  addq $8, %rsp
  .cfi_adjust_cfa_offset -8
  jmp 1b
  .cfi_endproc

/*
 * Copyright 2018-2021 Yury Gribov
 *
 * The MIT License (MIT)
 *
 * Use of this source code is governed by MIT license that can be
 * found in the LICENSE.txt file.
 */

  .globl XBell
  .p2align 4
  .type XBell, %function
#ifdef IMPLIB_HIDDEN_SHIMS
  .hidden XBell
#endif
XBell:
  .cfi_startproc
  // Intel opt. manual says to
  // "make the fall-through code following a conditional branch be the likely target for a branch with a forward target"
  // to hint static predictor.
  cmpq $0, _libX11_so_tramp_table+184(%rip)
  je 2f
1:
  jmp *_libX11_so_tramp_table+184(%rip)
2:
  pushq $23
  .cfi_adjust_cfa_offset 8
  call _libX11_so_save_regs_and_resolve
  addq $8, %rsp
  .cfi_adjust_cfa_offset -8
  jmp 1b
  .cfi_endproc

/*
 * Copyright 2018-2021 Yury Gribov
 *
 * The MIT License (MIT)
 *
 * Use of this source code is governed by MIT license that can be
 * found in the LICENSE.txt file.
 */

  .globl XBitmapBitOrder
  .p2align 4
  .type XBitmapBitOrder, %function
#ifdef IMPLIB_HIDDEN_SHIMS
  .hidden XBitmapBitOrder
#endif
XBitmapBitOrder:
  .cfi_startproc
  // Intel opt. manual says to
  // "make the fall-through code following a conditional branch be the likely target for a branch with a forward target"
  // to hint static predictor.
  cmpq $0, _libX11_so_tramp_table+192(%rip)
  je 2f
1:
  jmp *_libX11_so_tramp_table+192(%rip)
2:
  pushq $24
  .cfi_adjust_cfa_offset 8
  call _libX11_so_save_regs_and_resolve
  addq $8, %rsp
  .cfi_adjust_cfa_offset -8
  jmp 1b
  .cfi_endproc

/*
 * Copyright 2018-2021 Yury Gribov
 *
 * The MIT License (MIT)
 *
 * Use of this source code is governed by MIT license that can be
 * found in the LICENSE.txt file.
 */

  .globl XBitmapPad
  .p2align 4
  .type XBitmapPad, %function
#ifdef IMPLIB_HIDDEN_SHIMS
  .hidden XBitmapPad
#endif
XBitmapPad:
  .cfi_startproc
  // Intel opt. manual says to
  // "make the fall-through code following a conditional branch be the likely target for a branch with a forward target"
  // to hint static predictor.
  cmpq $0, _libX11_so_tramp_table+200(%rip)
  je 2f
1:
  jmp *_libX11_so_tramp_table+200(%rip)
2:
  pushq $25
  .cfi_adjust_cfa_offset 8
  call _libX11_so_save_regs_and_resolve
  addq $8, %rsp
  .cfi_adjust_cfa_offset -8
  jmp 1b
  .cfi_endproc

/*
 * Copyright 2018-2021 Yury Gribov
 *
 * The MIT License (MIT)
 *
 * Use of this source code is governed by MIT license that can be
 * found in the LICENSE.txt file.
 */

  .globl XBitmapUnit
  .p2align 4
  .type XBitmapUnit, %function
#ifdef IMPLIB_HIDDEN_SHIMS
  .hidden XBitmapUnit
#endif
XBitmapUnit:
  .cfi_startproc
  // Intel opt. manual says to
  // "make the fall-through code following a conditional branch be the likely target for a branch with a forward target"
  // to hint static predictor.
  cmpq $0, _libX11_so_tramp_table+208(%rip)
  je 2f
1:
  jmp *_libX11_so_tramp_table+208(%rip)
2:
  pushq $26
  .cfi_adjust_cfa_offset 8
  call _libX11_so_save_regs_and_resolve
  addq $8, %rsp
  .cfi_adjust_cfa_offset -8
  jmp 1b
  .cfi_endproc

/*
 * Copyright 2018-2021 Yury Gribov
 *
 * The MIT License (MIT)
 *
 * Use of this source code is governed by MIT license that can be
 * found in the LICENSE.txt file.
 */

  .globl XBlackPixel
  .p2align 4
  .type XBlackPixel, %function
#ifdef IMPLIB_HIDDEN_SHIMS
  .hidden XBlackPixel
#endif
XBlackPixel:
  .cfi_startproc
  // Intel opt. manual says to
  // "make the fall-through code following a conditional branch be the likely target for a branch with a forward target"
  // to hint static predictor.
  cmpq $0, _libX11_so_tramp_table+216(%rip)
  je 2f
1:
  jmp *_libX11_so_tramp_table+216(%rip)
2:
  pushq $27
  .cfi_adjust_cfa_offset 8
  call _libX11_so_save_regs_and_resolve
  addq $8, %rsp
  .cfi_adjust_cfa_offset -8
  jmp 1b
  .cfi_endproc

/*
 * Copyright 2018-2021 Yury Gribov
 *
 * The MIT License (MIT)
 *
 * Use of this source code is governed by MIT license that can be
 * found in the LICENSE.txt file.
 */

  .globl XBlackPixelOfScreen
  .p2align 4
  .type XBlackPixelOfScreen, %function
#ifdef IMPLIB_HIDDEN_SHIMS
  .hidden XBlackPixelOfScreen
#endif
XBlackPixelOfScreen:
  .cfi_startproc
  // Intel opt. manual says to
  // "make the fall-through code following a conditional branch be the likely target for a branch with a forward target"
  // to hint static predictor.
  cmpq $0, _libX11_so_tramp_table+224(%rip)
  je 2f
1:
  jmp *_libX11_so_tramp_table+224(%rip)
2:
  pushq $28
  .cfi_adjust_cfa_offset 8
  call _libX11_so_save_regs_and_resolve
  addq $8, %rsp
  .cfi_adjust_cfa_offset -8
  jmp 1b
  .cfi_endproc

/*
 * Copyright 2018-2021 Yury Gribov
 *
 * The MIT License (MIT)
 *
 * Use of this source code is governed by MIT license that can be
 * found in the LICENSE.txt file.
 */

  .globl XCellsOfScreen
  .p2align 4
  .type XCellsOfScreen, %function
#ifdef IMPLIB_HIDDEN_SHIMS
  .hidden XCellsOfScreen
#endif
XCellsOfScreen:
  .cfi_startproc
  // Intel opt. manual says to
  // "make the fall-through code following a conditional branch be the likely target for a branch with a forward target"
  // to hint static predictor.
  cmpq $0, _libX11_so_tramp_table+232(%rip)
  je 2f
1:
  jmp *_libX11_so_tramp_table+232(%rip)
2:
  pushq $29
  .cfi_adjust_cfa_offset 8
  call _libX11_so_save_regs_and_resolve
  addq $8, %rsp
  .cfi_adjust_cfa_offset -8
  jmp 1b
  .cfi_endproc

/*
 * Copyright 2018-2021 Yury Gribov
 *
 * The MIT License (MIT)
 *
 * Use of this source code is governed by MIT license that can be
 * found in the LICENSE.txt file.
 */

  .globl XChangeActivePointerGrab
  .p2align 4
  .type XChangeActivePointerGrab, %function
#ifdef IMPLIB_HIDDEN_SHIMS
  .hidden XChangeActivePointerGrab
#endif
XChangeActivePointerGrab:
  .cfi_startproc
  // Intel opt. manual says to
  // "make the fall-through code following a conditional branch be the likely target for a branch with a forward target"
  // to hint static predictor.
  cmpq $0, _libX11_so_tramp_table+240(%rip)
  je 2f
1:
  jmp *_libX11_so_tramp_table+240(%rip)
2:
  pushq $30
  .cfi_adjust_cfa_offset 8
  call _libX11_so_save_regs_and_resolve
  addq $8, %rsp
  .cfi_adjust_cfa_offset -8
  jmp 1b
  .cfi_endproc

/*
 * Copyright 2018-2021 Yury Gribov
 *
 * The MIT License (MIT)
 *
 * Use of this source code is governed by MIT license that can be
 * found in the LICENSE.txt file.
 */

  .globl XChangeGC
  .p2align 4
  .type XChangeGC, %function
#ifdef IMPLIB_HIDDEN_SHIMS
  .hidden XChangeGC
#endif
XChangeGC:
  .cfi_startproc
  // Intel opt. manual says to
  // "make the fall-through code following a conditional branch be the likely target for a branch with a forward target"
  // to hint static predictor.
  cmpq $0, _libX11_so_tramp_table+248(%rip)
  je 2f
1:
  jmp *_libX11_so_tramp_table+248(%rip)
2:
  pushq $31
  .cfi_adjust_cfa_offset 8
  call _libX11_so_save_regs_and_resolve
  addq $8, %rsp
  .cfi_adjust_cfa_offset -8
  jmp 1b
  .cfi_endproc

/*
 * Copyright 2018-2021 Yury Gribov
 *
 * The MIT License (MIT)
 *
 * Use of this source code is governed by MIT license that can be
 * found in the LICENSE.txt file.
 */

  .globl XChangeKeyboardControl
  .p2align 4
  .type XChangeKeyboardControl, %function
#ifdef IMPLIB_HIDDEN_SHIMS
  .hidden XChangeKeyboardControl
#endif
XChangeKeyboardControl:
  .cfi_startproc
  // Intel opt. manual says to
  // "make the fall-through code following a conditional branch be the likely target for a branch with a forward target"
  // to hint static predictor.
  cmpq $0, _libX11_so_tramp_table+256(%rip)
  je 2f
1:
  jmp *_libX11_so_tramp_table+256(%rip)
2:
  pushq $32
  .cfi_adjust_cfa_offset 8
  call _libX11_so_save_regs_and_resolve
  addq $8, %rsp
  .cfi_adjust_cfa_offset -8
  jmp 1b
  .cfi_endproc

/*
 * Copyright 2018-2021 Yury Gribov
 *
 * The MIT License (MIT)
 *
 * Use of this source code is governed by MIT license that can be
 * found in the LICENSE.txt file.
 */

  .globl XChangeKeyboardMapping
  .p2align 4
  .type XChangeKeyboardMapping, %function
#ifdef IMPLIB_HIDDEN_SHIMS
  .hidden XChangeKeyboardMapping
#endif
XChangeKeyboardMapping:
  .cfi_startproc
  // Intel opt. manual says to
  // "make the fall-through code following a conditional branch be the likely target for a branch with a forward target"
  // to hint static predictor.
  cmpq $0, _libX11_so_tramp_table+264(%rip)
  je 2f
1:
  jmp *_libX11_so_tramp_table+264(%rip)
2:
  pushq $33
  .cfi_adjust_cfa_offset 8
  call _libX11_so_save_regs_and_resolve
  addq $8, %rsp
  .cfi_adjust_cfa_offset -8
  jmp 1b
  .cfi_endproc

/*
 * Copyright 2018-2021 Yury Gribov
 *
 * The MIT License (MIT)
 *
 * Use of this source code is governed by MIT license that can be
 * found in the LICENSE.txt file.
 */

  .globl XChangePointerControl
  .p2align 4
  .type XChangePointerControl, %function
#ifdef IMPLIB_HIDDEN_SHIMS
  .hidden XChangePointerControl
#endif
XChangePointerControl:
  .cfi_startproc
  // Intel opt. manual says to
  // "make the fall-through code following a conditional branch be the likely target for a branch with a forward target"
  // to hint static predictor.
  cmpq $0, _libX11_so_tramp_table+272(%rip)
  je 2f
1:
  jmp *_libX11_so_tramp_table+272(%rip)
2:
  pushq $34
  .cfi_adjust_cfa_offset 8
  call _libX11_so_save_regs_and_resolve
  addq $8, %rsp
  .cfi_adjust_cfa_offset -8
  jmp 1b
  .cfi_endproc

/*
 * Copyright 2018-2021 Yury Gribov
 *
 * The MIT License (MIT)
 *
 * Use of this source code is governed by MIT license that can be
 * found in the LICENSE.txt file.
 */

  .globl XChangeProperty
  .p2align 4
  .type XChangeProperty, %function
#ifdef IMPLIB_HIDDEN_SHIMS
  .hidden XChangeProperty
#endif
XChangeProperty:
  .cfi_startproc
  // Intel opt. manual says to
  // "make the fall-through code following a conditional branch be the likely target for a branch with a forward target"
  // to hint static predictor.
  cmpq $0, _libX11_so_tramp_table+280(%rip)
  je 2f
1:
  jmp *_libX11_so_tramp_table+280(%rip)
2:
  pushq $35
  .cfi_adjust_cfa_offset 8
  call _libX11_so_save_regs_and_resolve
  addq $8, %rsp
  .cfi_adjust_cfa_offset -8
  jmp 1b
  .cfi_endproc

/*
 * Copyright 2018-2021 Yury Gribov
 *
 * The MIT License (MIT)
 *
 * Use of this source code is governed by MIT license that can be
 * found in the LICENSE.txt file.
 */

  .globl XChangeSaveSet
  .p2align 4
  .type XChangeSaveSet, %function
#ifdef IMPLIB_HIDDEN_SHIMS
  .hidden XChangeSaveSet
#endif
XChangeSaveSet:
  .cfi_startproc
  // Intel opt. manual says to
  // "make the fall-through code following a conditional branch be the likely target for a branch with a forward target"
  // to hint static predictor.
  cmpq $0, _libX11_so_tramp_table+288(%rip)
  je 2f
1:
  jmp *_libX11_so_tramp_table+288(%rip)
2:
  pushq $36
  .cfi_adjust_cfa_offset 8
  call _libX11_so_save_regs_and_resolve
  addq $8, %rsp
  .cfi_adjust_cfa_offset -8
  jmp 1b
  .cfi_endproc

/*
 * Copyright 2018-2021 Yury Gribov
 *
 * The MIT License (MIT)
 *
 * Use of this source code is governed by MIT license that can be
 * found in the LICENSE.txt file.
 */

  .globl XChangeWindowAttributes
  .p2align 4
  .type XChangeWindowAttributes, %function
#ifdef IMPLIB_HIDDEN_SHIMS
  .hidden XChangeWindowAttributes
#endif
XChangeWindowAttributes:
  .cfi_startproc
  // Intel opt. manual says to
  // "make the fall-through code following a conditional branch be the likely target for a branch with a forward target"
  // to hint static predictor.
  cmpq $0, _libX11_so_tramp_table+296(%rip)
  je 2f
1:
  jmp *_libX11_so_tramp_table+296(%rip)
2:
  pushq $37
  .cfi_adjust_cfa_offset 8
  call _libX11_so_save_regs_and_resolve
  addq $8, %rsp
  .cfi_adjust_cfa_offset -8
  jmp 1b
  .cfi_endproc

/*
 * Copyright 2018-2021 Yury Gribov
 *
 * The MIT License (MIT)
 *
 * Use of this source code is governed by MIT license that can be
 * found in the LICENSE.txt file.
 */

  .globl XCheckIfEvent
  .p2align 4
  .type XCheckIfEvent, %function
#ifdef IMPLIB_HIDDEN_SHIMS
  .hidden XCheckIfEvent
#endif
XCheckIfEvent:
  .cfi_startproc
  // Intel opt. manual says to
  // "make the fall-through code following a conditional branch be the likely target for a branch with a forward target"
  // to hint static predictor.
  cmpq $0, _libX11_so_tramp_table+304(%rip)
  je 2f
1:
  jmp *_libX11_so_tramp_table+304(%rip)
2:
  pushq $38
  .cfi_adjust_cfa_offset 8
  call _libX11_so_save_regs_and_resolve
  addq $8, %rsp
  .cfi_adjust_cfa_offset -8
  jmp 1b
  .cfi_endproc

/*
 * Copyright 2018-2021 Yury Gribov
 *
 * The MIT License (MIT)
 *
 * Use of this source code is governed by MIT license that can be
 * found in the LICENSE.txt file.
 */

  .globl XCheckMaskEvent
  .p2align 4
  .type XCheckMaskEvent, %function
#ifdef IMPLIB_HIDDEN_SHIMS
  .hidden XCheckMaskEvent
#endif
XCheckMaskEvent:
  .cfi_startproc
  // Intel opt. manual says to
  // "make the fall-through code following a conditional branch be the likely target for a branch with a forward target"
  // to hint static predictor.
  cmpq $0, _libX11_so_tramp_table+312(%rip)
  je 2f
1:
  jmp *_libX11_so_tramp_table+312(%rip)
2:
  pushq $39
  .cfi_adjust_cfa_offset 8
  call _libX11_so_save_regs_and_resolve
  addq $8, %rsp
  .cfi_adjust_cfa_offset -8
  jmp 1b
  .cfi_endproc

/*
 * Copyright 2018-2021 Yury Gribov
 *
 * The MIT License (MIT)
 *
 * Use of this source code is governed by MIT license that can be
 * found in the LICENSE.txt file.
 */

  .globl XCheckTypedEvent
  .p2align 4
  .type XCheckTypedEvent, %function
#ifdef IMPLIB_HIDDEN_SHIMS
  .hidden XCheckTypedEvent
#endif
XCheckTypedEvent:
  .cfi_startproc
  // Intel opt. manual says to
  // "make the fall-through code following a conditional branch be the likely target for a branch with a forward target"
  // to hint static predictor.
  cmpq $0, _libX11_so_tramp_table+320(%rip)
  je 2f
1:
  jmp *_libX11_so_tramp_table+320(%rip)
2:
  pushq $40
  .cfi_adjust_cfa_offset 8
  call _libX11_so_save_regs_and_resolve
  addq $8, %rsp
  .cfi_adjust_cfa_offset -8
  jmp 1b
  .cfi_endproc

/*
 * Copyright 2018-2021 Yury Gribov
 *
 * The MIT License (MIT)
 *
 * Use of this source code is governed by MIT license that can be
 * found in the LICENSE.txt file.
 */

  .globl XCheckTypedWindowEvent
  .p2align 4
  .type XCheckTypedWindowEvent, %function
#ifdef IMPLIB_HIDDEN_SHIMS
  .hidden XCheckTypedWindowEvent
#endif
XCheckTypedWindowEvent:
  .cfi_startproc
  // Intel opt. manual says to
  // "make the fall-through code following a conditional branch be the likely target for a branch with a forward target"
  // to hint static predictor.
  cmpq $0, _libX11_so_tramp_table+328(%rip)
  je 2f
1:
  jmp *_libX11_so_tramp_table+328(%rip)
2:
  pushq $41
  .cfi_adjust_cfa_offset 8
  call _libX11_so_save_regs_and_resolve
  addq $8, %rsp
  .cfi_adjust_cfa_offset -8
  jmp 1b
  .cfi_endproc

/*
 * Copyright 2018-2021 Yury Gribov
 *
 * The MIT License (MIT)
 *
 * Use of this source code is governed by MIT license that can be
 * found in the LICENSE.txt file.
 */

  .globl XCheckWindowEvent
  .p2align 4
  .type XCheckWindowEvent, %function
#ifdef IMPLIB_HIDDEN_SHIMS
  .hidden XCheckWindowEvent
#endif
XCheckWindowEvent:
  .cfi_startproc
  // Intel opt. manual says to
  // "make the fall-through code following a conditional branch be the likely target for a branch with a forward target"
  // to hint static predictor.
  cmpq $0, _libX11_so_tramp_table+336(%rip)
  je 2f
1:
  jmp *_libX11_so_tramp_table+336(%rip)
2:
  pushq $42
  .cfi_adjust_cfa_offset 8
  call _libX11_so_save_regs_and_resolve
  addq $8, %rsp
  .cfi_adjust_cfa_offset -8
  jmp 1b
  .cfi_endproc

/*
 * Copyright 2018-2021 Yury Gribov
 *
 * The MIT License (MIT)
 *
 * Use of this source code is governed by MIT license that can be
 * found in the LICENSE.txt file.
 */

  .globl XCirculateSubwindows
  .p2align 4
  .type XCirculateSubwindows, %function
#ifdef IMPLIB_HIDDEN_SHIMS
  .hidden XCirculateSubwindows
#endif
XCirculateSubwindows:
  .cfi_startproc
  // Intel opt. manual says to
  // "make the fall-through code following a conditional branch be the likely target for a branch with a forward target"
  // to hint static predictor.
  cmpq $0, _libX11_so_tramp_table+344(%rip)
  je 2f
1:
  jmp *_libX11_so_tramp_table+344(%rip)
2:
  pushq $43
  .cfi_adjust_cfa_offset 8
  call _libX11_so_save_regs_and_resolve
  addq $8, %rsp
  .cfi_adjust_cfa_offset -8
  jmp 1b
  .cfi_endproc

/*
 * Copyright 2018-2021 Yury Gribov
 *
 * The MIT License (MIT)
 *
 * Use of this source code is governed by MIT license that can be
 * found in the LICENSE.txt file.
 */

  .globl XCirculateSubwindowsDown
  .p2align 4
  .type XCirculateSubwindowsDown, %function
#ifdef IMPLIB_HIDDEN_SHIMS
  .hidden XCirculateSubwindowsDown
#endif
XCirculateSubwindowsDown:
  .cfi_startproc
  // Intel opt. manual says to
  // "make the fall-through code following a conditional branch be the likely target for a branch with a forward target"
  // to hint static predictor.
  cmpq $0, _libX11_so_tramp_table+352(%rip)
  je 2f
1:
  jmp *_libX11_so_tramp_table+352(%rip)
2:
  pushq $44
  .cfi_adjust_cfa_offset 8
  call _libX11_so_save_regs_and_resolve
  addq $8, %rsp
  .cfi_adjust_cfa_offset -8
  jmp 1b
  .cfi_endproc

/*
 * Copyright 2018-2021 Yury Gribov
 *
 * The MIT License (MIT)
 *
 * Use of this source code is governed by MIT license that can be
 * found in the LICENSE.txt file.
 */

  .globl XCirculateSubwindowsUp
  .p2align 4
  .type XCirculateSubwindowsUp, %function
#ifdef IMPLIB_HIDDEN_SHIMS
  .hidden XCirculateSubwindowsUp
#endif
XCirculateSubwindowsUp:
  .cfi_startproc
  // Intel opt. manual says to
  // "make the fall-through code following a conditional branch be the likely target for a branch with a forward target"
  // to hint static predictor.
  cmpq $0, _libX11_so_tramp_table+360(%rip)
  je 2f
1:
  jmp *_libX11_so_tramp_table+360(%rip)
2:
  pushq $45
  .cfi_adjust_cfa_offset 8
  call _libX11_so_save_regs_and_resolve
  addq $8, %rsp
  .cfi_adjust_cfa_offset -8
  jmp 1b
  .cfi_endproc

/*
 * Copyright 2018-2021 Yury Gribov
 *
 * The MIT License (MIT)
 *
 * Use of this source code is governed by MIT license that can be
 * found in the LICENSE.txt file.
 */

  .globl XClearArea
  .p2align 4
  .type XClearArea, %function
#ifdef IMPLIB_HIDDEN_SHIMS
  .hidden XClearArea
#endif
XClearArea:
  .cfi_startproc
  // Intel opt. manual says to
  // "make the fall-through code following a conditional branch be the likely target for a branch with a forward target"
  // to hint static predictor.
  cmpq $0, _libX11_so_tramp_table+368(%rip)
  je 2f
1:
  jmp *_libX11_so_tramp_table+368(%rip)
2:
  pushq $46
  .cfi_adjust_cfa_offset 8
  call _libX11_so_save_regs_and_resolve
  addq $8, %rsp
  .cfi_adjust_cfa_offset -8
  jmp 1b
  .cfi_endproc

/*
 * Copyright 2018-2021 Yury Gribov
 *
 * The MIT License (MIT)
 *
 * Use of this source code is governed by MIT license that can be
 * found in the LICENSE.txt file.
 */

  .globl XClearWindow
  .p2align 4
  .type XClearWindow, %function
#ifdef IMPLIB_HIDDEN_SHIMS
  .hidden XClearWindow
#endif
XClearWindow:
  .cfi_startproc
  // Intel opt. manual says to
  // "make the fall-through code following a conditional branch be the likely target for a branch with a forward target"
  // to hint static predictor.
  cmpq $0, _libX11_so_tramp_table+376(%rip)
  je 2f
1:
  jmp *_libX11_so_tramp_table+376(%rip)
2:
  pushq $47
  .cfi_adjust_cfa_offset 8
  call _libX11_so_save_regs_and_resolve
  addq $8, %rsp
  .cfi_adjust_cfa_offset -8
  jmp 1b
  .cfi_endproc

/*
 * Copyright 2018-2021 Yury Gribov
 *
 * The MIT License (MIT)
 *
 * Use of this source code is governed by MIT license that can be
 * found in the LICENSE.txt file.
 */

  .globl XClipBox
  .p2align 4
  .type XClipBox, %function
#ifdef IMPLIB_HIDDEN_SHIMS
  .hidden XClipBox
#endif
XClipBox:
  .cfi_startproc
  // Intel opt. manual says to
  // "make the fall-through code following a conditional branch be the likely target for a branch with a forward target"
  // to hint static predictor.
  cmpq $0, _libX11_so_tramp_table+384(%rip)
  je 2f
1:
  jmp *_libX11_so_tramp_table+384(%rip)
2:
  pushq $48
  .cfi_adjust_cfa_offset 8
  call _libX11_so_save_regs_and_resolve
  addq $8, %rsp
  .cfi_adjust_cfa_offset -8
  jmp 1b
  .cfi_endproc

/*
 * Copyright 2018-2021 Yury Gribov
 *
 * The MIT License (MIT)
 *
 * Use of this source code is governed by MIT license that can be
 * found in the LICENSE.txt file.
 */

  .globl XCloseDisplay
  .p2align 4
  .type XCloseDisplay, %function
#ifdef IMPLIB_HIDDEN_SHIMS
  .hidden XCloseDisplay
#endif
XCloseDisplay:
  .cfi_startproc
  // Intel opt. manual says to
  // "make the fall-through code following a conditional branch be the likely target for a branch with a forward target"
  // to hint static predictor.
  cmpq $0, _libX11_so_tramp_table+392(%rip)
  je 2f
1:
  jmp *_libX11_so_tramp_table+392(%rip)
2:
  pushq $49
  .cfi_adjust_cfa_offset 8
  call _libX11_so_save_regs_and_resolve
  addq $8, %rsp
  .cfi_adjust_cfa_offset -8
  jmp 1b
  .cfi_endproc

/*
 * Copyright 2018-2021 Yury Gribov
 *
 * The MIT License (MIT)
 *
 * Use of this source code is governed by MIT license that can be
 * found in the LICENSE.txt file.
 */

  .globl XCloseIM
  .p2align 4
  .type XCloseIM, %function
#ifdef IMPLIB_HIDDEN_SHIMS
  .hidden XCloseIM
#endif
XCloseIM:
  .cfi_startproc
  // Intel opt. manual says to
  // "make the fall-through code following a conditional branch be the likely target for a branch with a forward target"
  // to hint static predictor.
  cmpq $0, _libX11_so_tramp_table+400(%rip)
  je 2f
1:
  jmp *_libX11_so_tramp_table+400(%rip)
2:
  pushq $50
  .cfi_adjust_cfa_offset 8
  call _libX11_so_save_regs_and_resolve
  addq $8, %rsp
  .cfi_adjust_cfa_offset -8
  jmp 1b
  .cfi_endproc

/*
 * Copyright 2018-2021 Yury Gribov
 *
 * The MIT License (MIT)
 *
 * Use of this source code is governed by MIT license that can be
 * found in the LICENSE.txt file.
 */

  .globl XCloseOM
  .p2align 4
  .type XCloseOM, %function
#ifdef IMPLIB_HIDDEN_SHIMS
  .hidden XCloseOM
#endif
XCloseOM:
  .cfi_startproc
  // Intel opt. manual says to
  // "make the fall-through code following a conditional branch be the likely target for a branch with a forward target"
  // to hint static predictor.
  cmpq $0, _libX11_so_tramp_table+408(%rip)
  je 2f
1:
  jmp *_libX11_so_tramp_table+408(%rip)
2:
  pushq $51
  .cfi_adjust_cfa_offset 8
  call _libX11_so_save_regs_and_resolve
  addq $8, %rsp
  .cfi_adjust_cfa_offset -8
  jmp 1b
  .cfi_endproc

/*
 * Copyright 2018-2021 Yury Gribov
 *
 * The MIT License (MIT)
 *
 * Use of this source code is governed by MIT license that can be
 * found in the LICENSE.txt file.
 */

  .globl XConfigureWindow
  .p2align 4
  .type XConfigureWindow, %function
#ifdef IMPLIB_HIDDEN_SHIMS
  .hidden XConfigureWindow
#endif
XConfigureWindow:
  .cfi_startproc
  // Intel opt. manual says to
  // "make the fall-through code following a conditional branch be the likely target for a branch with a forward target"
  // to hint static predictor.
  cmpq $0, _libX11_so_tramp_table+416(%rip)
  je 2f
1:
  jmp *_libX11_so_tramp_table+416(%rip)
2:
  pushq $52
  .cfi_adjust_cfa_offset 8
  call _libX11_so_save_regs_and_resolve
  addq $8, %rsp
  .cfi_adjust_cfa_offset -8
  jmp 1b
  .cfi_endproc

/*
 * Copyright 2018-2021 Yury Gribov
 *
 * The MIT License (MIT)
 *
 * Use of this source code is governed by MIT license that can be
 * found in the LICENSE.txt file.
 */

  .globl XConnectionNumber
  .p2align 4
  .type XConnectionNumber, %function
#ifdef IMPLIB_HIDDEN_SHIMS
  .hidden XConnectionNumber
#endif
XConnectionNumber:
  .cfi_startproc
  // Intel opt. manual says to
  // "make the fall-through code following a conditional branch be the likely target for a branch with a forward target"
  // to hint static predictor.
  cmpq $0, _libX11_so_tramp_table+424(%rip)
  je 2f
1:
  jmp *_libX11_so_tramp_table+424(%rip)
2:
  pushq $53
  .cfi_adjust_cfa_offset 8
  call _libX11_so_save_regs_and_resolve
  addq $8, %rsp
  .cfi_adjust_cfa_offset -8
  jmp 1b
  .cfi_endproc

/*
 * Copyright 2018-2021 Yury Gribov
 *
 * The MIT License (MIT)
 *
 * Use of this source code is governed by MIT license that can be
 * found in the LICENSE.txt file.
 */

  .globl XContextDependentDrawing
  .p2align 4
  .type XContextDependentDrawing, %function
#ifdef IMPLIB_HIDDEN_SHIMS
  .hidden XContextDependentDrawing
#endif
XContextDependentDrawing:
  .cfi_startproc
  // Intel opt. manual says to
  // "make the fall-through code following a conditional branch be the likely target for a branch with a forward target"
  // to hint static predictor.
  cmpq $0, _libX11_so_tramp_table+432(%rip)
  je 2f
1:
  jmp *_libX11_so_tramp_table+432(%rip)
2:
  pushq $54
  .cfi_adjust_cfa_offset 8
  call _libX11_so_save_regs_and_resolve
  addq $8, %rsp
  .cfi_adjust_cfa_offset -8
  jmp 1b
  .cfi_endproc

/*
 * Copyright 2018-2021 Yury Gribov
 *
 * The MIT License (MIT)
 *
 * Use of this source code is governed by MIT license that can be
 * found in the LICENSE.txt file.
 */

  .globl XContextualDrawing
  .p2align 4
  .type XContextualDrawing, %function
#ifdef IMPLIB_HIDDEN_SHIMS
  .hidden XContextualDrawing
#endif
XContextualDrawing:
  .cfi_startproc
  // Intel opt. manual says to
  // "make the fall-through code following a conditional branch be the likely target for a branch with a forward target"
  // to hint static predictor.
  cmpq $0, _libX11_so_tramp_table+440(%rip)
  je 2f
1:
  jmp *_libX11_so_tramp_table+440(%rip)
2:
  pushq $55
  .cfi_adjust_cfa_offset 8
  call _libX11_so_save_regs_and_resolve
  addq $8, %rsp
  .cfi_adjust_cfa_offset -8
  jmp 1b
  .cfi_endproc

/*
 * Copyright 2018-2021 Yury Gribov
 *
 * The MIT License (MIT)
 *
 * Use of this source code is governed by MIT license that can be
 * found in the LICENSE.txt file.
 */

  .globl XConvertCase
  .p2align 4
  .type XConvertCase, %function
#ifdef IMPLIB_HIDDEN_SHIMS
  .hidden XConvertCase
#endif
XConvertCase:
  .cfi_startproc
  // Intel opt. manual says to
  // "make the fall-through code following a conditional branch be the likely target for a branch with a forward target"
  // to hint static predictor.
  cmpq $0, _libX11_so_tramp_table+448(%rip)
  je 2f
1:
  jmp *_libX11_so_tramp_table+448(%rip)
2:
  pushq $56
  .cfi_adjust_cfa_offset 8
  call _libX11_so_save_regs_and_resolve
  addq $8, %rsp
  .cfi_adjust_cfa_offset -8
  jmp 1b
  .cfi_endproc

/*
 * Copyright 2018-2021 Yury Gribov
 *
 * The MIT License (MIT)
 *
 * Use of this source code is governed by MIT license that can be
 * found in the LICENSE.txt file.
 */

  .globl XConvertSelection
  .p2align 4
  .type XConvertSelection, %function
#ifdef IMPLIB_HIDDEN_SHIMS
  .hidden XConvertSelection
#endif
XConvertSelection:
  .cfi_startproc
  // Intel opt. manual says to
  // "make the fall-through code following a conditional branch be the likely target for a branch with a forward target"
  // to hint static predictor.
  cmpq $0, _libX11_so_tramp_table+456(%rip)
  je 2f
1:
  jmp *_libX11_so_tramp_table+456(%rip)
2:
  pushq $57
  .cfi_adjust_cfa_offset 8
  call _libX11_so_save_regs_and_resolve
  addq $8, %rsp
  .cfi_adjust_cfa_offset -8
  jmp 1b
  .cfi_endproc

/*
 * Copyright 2018-2021 Yury Gribov
 *
 * The MIT License (MIT)
 *
 * Use of this source code is governed by MIT license that can be
 * found in the LICENSE.txt file.
 */

  .globl XCopyArea
  .p2align 4
  .type XCopyArea, %function
#ifdef IMPLIB_HIDDEN_SHIMS
  .hidden XCopyArea
#endif
XCopyArea:
  .cfi_startproc
  // Intel opt. manual says to
  // "make the fall-through code following a conditional branch be the likely target for a branch with a forward target"
  // to hint static predictor.
  cmpq $0, _libX11_so_tramp_table+464(%rip)
  je 2f
1:
  jmp *_libX11_so_tramp_table+464(%rip)
2:
  pushq $58
  .cfi_adjust_cfa_offset 8
  call _libX11_so_save_regs_and_resolve
  addq $8, %rsp
  .cfi_adjust_cfa_offset -8
  jmp 1b
  .cfi_endproc

/*
 * Copyright 2018-2021 Yury Gribov
 *
 * The MIT License (MIT)
 *
 * Use of this source code is governed by MIT license that can be
 * found in the LICENSE.txt file.
 */

  .globl XCopyColormapAndFree
  .p2align 4
  .type XCopyColormapAndFree, %function
#ifdef IMPLIB_HIDDEN_SHIMS
  .hidden XCopyColormapAndFree
#endif
XCopyColormapAndFree:
  .cfi_startproc
  // Intel opt. manual says to
  // "make the fall-through code following a conditional branch be the likely target for a branch with a forward target"
  // to hint static predictor.
  cmpq $0, _libX11_so_tramp_table+472(%rip)
  je 2f
1:
  jmp *_libX11_so_tramp_table+472(%rip)
2:
  pushq $59
  .cfi_adjust_cfa_offset 8
  call _libX11_so_save_regs_and_resolve
  addq $8, %rsp
  .cfi_adjust_cfa_offset -8
  jmp 1b
  .cfi_endproc

/*
 * Copyright 2018-2021 Yury Gribov
 *
 * The MIT License (MIT)
 *
 * Use of this source code is governed by MIT license that can be
 * found in the LICENSE.txt file.
 */

  .globl XCopyGC
  .p2align 4
  .type XCopyGC, %function
#ifdef IMPLIB_HIDDEN_SHIMS
  .hidden XCopyGC
#endif
XCopyGC:
  .cfi_startproc
  // Intel opt. manual says to
  // "make the fall-through code following a conditional branch be the likely target for a branch with a forward target"
  // to hint static predictor.
  cmpq $0, _libX11_so_tramp_table+480(%rip)
  je 2f
1:
  jmp *_libX11_so_tramp_table+480(%rip)
2:
  pushq $60
  .cfi_adjust_cfa_offset 8
  call _libX11_so_save_regs_and_resolve
  addq $8, %rsp
  .cfi_adjust_cfa_offset -8
  jmp 1b
  .cfi_endproc

/*
 * Copyright 2018-2021 Yury Gribov
 *
 * The MIT License (MIT)
 *
 * Use of this source code is governed by MIT license that can be
 * found in the LICENSE.txt file.
 */

  .globl XCopyPlane
  .p2align 4
  .type XCopyPlane, %function
#ifdef IMPLIB_HIDDEN_SHIMS
  .hidden XCopyPlane
#endif
XCopyPlane:
  .cfi_startproc
  // Intel opt. manual says to
  // "make the fall-through code following a conditional branch be the likely target for a branch with a forward target"
  // to hint static predictor.
  cmpq $0, _libX11_so_tramp_table+488(%rip)
  je 2f
1:
  jmp *_libX11_so_tramp_table+488(%rip)
2:
  pushq $61
  .cfi_adjust_cfa_offset 8
  call _libX11_so_save_regs_and_resolve
  addq $8, %rsp
  .cfi_adjust_cfa_offset -8
  jmp 1b
  .cfi_endproc

/*
 * Copyright 2018-2021 Yury Gribov
 *
 * The MIT License (MIT)
 *
 * Use of this source code is governed by MIT license that can be
 * found in the LICENSE.txt file.
 */

  .globl XCreateBitmapFromData
  .p2align 4
  .type XCreateBitmapFromData, %function
#ifdef IMPLIB_HIDDEN_SHIMS
  .hidden XCreateBitmapFromData
#endif
XCreateBitmapFromData:
  .cfi_startproc
  // Intel opt. manual says to
  // "make the fall-through code following a conditional branch be the likely target for a branch with a forward target"
  // to hint static predictor.
  cmpq $0, _libX11_so_tramp_table+496(%rip)
  je 2f
1:
  jmp *_libX11_so_tramp_table+496(%rip)
2:
  pushq $62
  .cfi_adjust_cfa_offset 8
  call _libX11_so_save_regs_and_resolve
  addq $8, %rsp
  .cfi_adjust_cfa_offset -8
  jmp 1b
  .cfi_endproc

/*
 * Copyright 2018-2021 Yury Gribov
 *
 * The MIT License (MIT)
 *
 * Use of this source code is governed by MIT license that can be
 * found in the LICENSE.txt file.
 */

  .globl XCreateColormap
  .p2align 4
  .type XCreateColormap, %function
#ifdef IMPLIB_HIDDEN_SHIMS
  .hidden XCreateColormap
#endif
XCreateColormap:
  .cfi_startproc
  // Intel opt. manual says to
  // "make the fall-through code following a conditional branch be the likely target for a branch with a forward target"
  // to hint static predictor.
  cmpq $0, _libX11_so_tramp_table+504(%rip)
  je 2f
1:
  jmp *_libX11_so_tramp_table+504(%rip)
2:
  pushq $63
  .cfi_adjust_cfa_offset 8
  call _libX11_so_save_regs_and_resolve
  addq $8, %rsp
  .cfi_adjust_cfa_offset -8
  jmp 1b
  .cfi_endproc

/*
 * Copyright 2018-2021 Yury Gribov
 *
 * The MIT License (MIT)
 *
 * Use of this source code is governed by MIT license that can be
 * found in the LICENSE.txt file.
 */

  .globl XCreateFontCursor
  .p2align 4
  .type XCreateFontCursor, %function
#ifdef IMPLIB_HIDDEN_SHIMS
  .hidden XCreateFontCursor
#endif
XCreateFontCursor:
  .cfi_startproc
  // Intel opt. manual says to
  // "make the fall-through code following a conditional branch be the likely target for a branch with a forward target"
  // to hint static predictor.
  cmpq $0, _libX11_so_tramp_table+512(%rip)
  je 2f
1:
  jmp *_libX11_so_tramp_table+512(%rip)
2:
  pushq $64
  .cfi_adjust_cfa_offset 8
  call _libX11_so_save_regs_and_resolve
  addq $8, %rsp
  .cfi_adjust_cfa_offset -8
  jmp 1b
  .cfi_endproc

/*
 * Copyright 2018-2021 Yury Gribov
 *
 * The MIT License (MIT)
 *
 * Use of this source code is governed by MIT license that can be
 * found in the LICENSE.txt file.
 */

  .globl XCreateFontSet
  .p2align 4
  .type XCreateFontSet, %function
#ifdef IMPLIB_HIDDEN_SHIMS
  .hidden XCreateFontSet
#endif
XCreateFontSet:
  .cfi_startproc
  // Intel opt. manual says to
  // "make the fall-through code following a conditional branch be the likely target for a branch with a forward target"
  // to hint static predictor.
  cmpq $0, _libX11_so_tramp_table+520(%rip)
  je 2f
1:
  jmp *_libX11_so_tramp_table+520(%rip)
2:
  pushq $65
  .cfi_adjust_cfa_offset 8
  call _libX11_so_save_regs_and_resolve
  addq $8, %rsp
  .cfi_adjust_cfa_offset -8
  jmp 1b
  .cfi_endproc

/*
 * Copyright 2018-2021 Yury Gribov
 *
 * The MIT License (MIT)
 *
 * Use of this source code is governed by MIT license that can be
 * found in the LICENSE.txt file.
 */

  .globl XCreateGC
  .p2align 4
  .type XCreateGC, %function
#ifdef IMPLIB_HIDDEN_SHIMS
  .hidden XCreateGC
#endif
XCreateGC:
  .cfi_startproc
  // Intel opt. manual says to
  // "make the fall-through code following a conditional branch be the likely target for a branch with a forward target"
  // to hint static predictor.
  cmpq $0, _libX11_so_tramp_table+528(%rip)
  je 2f
1:
  jmp *_libX11_so_tramp_table+528(%rip)
2:
  pushq $66
  .cfi_adjust_cfa_offset 8
  call _libX11_so_save_regs_and_resolve
  addq $8, %rsp
  .cfi_adjust_cfa_offset -8
  jmp 1b
  .cfi_endproc

/*
 * Copyright 2018-2021 Yury Gribov
 *
 * The MIT License (MIT)
 *
 * Use of this source code is governed by MIT license that can be
 * found in the LICENSE.txt file.
 */

  .globl XCreateGlyphCursor
  .p2align 4
  .type XCreateGlyphCursor, %function
#ifdef IMPLIB_HIDDEN_SHIMS
  .hidden XCreateGlyphCursor
#endif
XCreateGlyphCursor:
  .cfi_startproc
  // Intel opt. manual says to
  // "make the fall-through code following a conditional branch be the likely target for a branch with a forward target"
  // to hint static predictor.
  cmpq $0, _libX11_so_tramp_table+536(%rip)
  je 2f
1:
  jmp *_libX11_so_tramp_table+536(%rip)
2:
  pushq $67
  .cfi_adjust_cfa_offset 8
  call _libX11_so_save_regs_and_resolve
  addq $8, %rsp
  .cfi_adjust_cfa_offset -8
  jmp 1b
  .cfi_endproc

/*
 * Copyright 2018-2021 Yury Gribov
 *
 * The MIT License (MIT)
 *
 * Use of this source code is governed by MIT license that can be
 * found in the LICENSE.txt file.
 */

  .globl XCreateIC
  .p2align 4
  .type XCreateIC, %function
#ifdef IMPLIB_HIDDEN_SHIMS
  .hidden XCreateIC
#endif
XCreateIC:
  .cfi_startproc
  // Intel opt. manual says to
  // "make the fall-through code following a conditional branch be the likely target for a branch with a forward target"
  // to hint static predictor.
  cmpq $0, _libX11_so_tramp_table+544(%rip)
  je 2f
1:
  jmp *_libX11_so_tramp_table+544(%rip)
2:
  pushq $68
  .cfi_adjust_cfa_offset 8
  call _libX11_so_save_regs_and_resolve
  addq $8, %rsp
  .cfi_adjust_cfa_offset -8
  jmp 1b
  .cfi_endproc

/*
 * Copyright 2018-2021 Yury Gribov
 *
 * The MIT License (MIT)
 *
 * Use of this source code is governed by MIT license that can be
 * found in the LICENSE.txt file.
 */

  .globl XCreateImage
  .p2align 4
  .type XCreateImage, %function
#ifdef IMPLIB_HIDDEN_SHIMS
  .hidden XCreateImage
#endif
XCreateImage:
  .cfi_startproc
  // Intel opt. manual says to
  // "make the fall-through code following a conditional branch be the likely target for a branch with a forward target"
  // to hint static predictor.
  cmpq $0, _libX11_so_tramp_table+552(%rip)
  je 2f
1:
  jmp *_libX11_so_tramp_table+552(%rip)
2:
  pushq $69
  .cfi_adjust_cfa_offset 8
  call _libX11_so_save_regs_and_resolve
  addq $8, %rsp
  .cfi_adjust_cfa_offset -8
  jmp 1b
  .cfi_endproc

/*
 * Copyright 2018-2021 Yury Gribov
 *
 * The MIT License (MIT)
 *
 * Use of this source code is governed by MIT license that can be
 * found in the LICENSE.txt file.
 */

  .globl XCreateOC
  .p2align 4
  .type XCreateOC, %function
#ifdef IMPLIB_HIDDEN_SHIMS
  .hidden XCreateOC
#endif
XCreateOC:
  .cfi_startproc
  // Intel opt. manual says to
  // "make the fall-through code following a conditional branch be the likely target for a branch with a forward target"
  // to hint static predictor.
  cmpq $0, _libX11_so_tramp_table+560(%rip)
  je 2f
1:
  jmp *_libX11_so_tramp_table+560(%rip)
2:
  pushq $70
  .cfi_adjust_cfa_offset 8
  call _libX11_so_save_regs_and_resolve
  addq $8, %rsp
  .cfi_adjust_cfa_offset -8
  jmp 1b
  .cfi_endproc

/*
 * Copyright 2018-2021 Yury Gribov
 *
 * The MIT License (MIT)
 *
 * Use of this source code is governed by MIT license that can be
 * found in the LICENSE.txt file.
 */

  .globl XCreatePixmap
  .p2align 4
  .type XCreatePixmap, %function
#ifdef IMPLIB_HIDDEN_SHIMS
  .hidden XCreatePixmap
#endif
XCreatePixmap:
  .cfi_startproc
  // Intel opt. manual says to
  // "make the fall-through code following a conditional branch be the likely target for a branch with a forward target"
  // to hint static predictor.
  cmpq $0, _libX11_so_tramp_table+568(%rip)
  je 2f
1:
  jmp *_libX11_so_tramp_table+568(%rip)
2:
  pushq $71
  .cfi_adjust_cfa_offset 8
  call _libX11_so_save_regs_and_resolve
  addq $8, %rsp
  .cfi_adjust_cfa_offset -8
  jmp 1b
  .cfi_endproc

/*
 * Copyright 2018-2021 Yury Gribov
 *
 * The MIT License (MIT)
 *
 * Use of this source code is governed by MIT license that can be
 * found in the LICENSE.txt file.
 */

  .globl XCreatePixmapCursor
  .p2align 4
  .type XCreatePixmapCursor, %function
#ifdef IMPLIB_HIDDEN_SHIMS
  .hidden XCreatePixmapCursor
#endif
XCreatePixmapCursor:
  .cfi_startproc
  // Intel opt. manual says to
  // "make the fall-through code following a conditional branch be the likely target for a branch with a forward target"
  // to hint static predictor.
  cmpq $0, _libX11_so_tramp_table+576(%rip)
  je 2f
1:
  jmp *_libX11_so_tramp_table+576(%rip)
2:
  pushq $72
  .cfi_adjust_cfa_offset 8
  call _libX11_so_save_regs_and_resolve
  addq $8, %rsp
  .cfi_adjust_cfa_offset -8
  jmp 1b
  .cfi_endproc

/*
 * Copyright 2018-2021 Yury Gribov
 *
 * The MIT License (MIT)
 *
 * Use of this source code is governed by MIT license that can be
 * found in the LICENSE.txt file.
 */

  .globl XCreatePixmapFromBitmapData
  .p2align 4
  .type XCreatePixmapFromBitmapData, %function
#ifdef IMPLIB_HIDDEN_SHIMS
  .hidden XCreatePixmapFromBitmapData
#endif
XCreatePixmapFromBitmapData:
  .cfi_startproc
  // Intel opt. manual says to
  // "make the fall-through code following a conditional branch be the likely target for a branch with a forward target"
  // to hint static predictor.
  cmpq $0, _libX11_so_tramp_table+584(%rip)
  je 2f
1:
  jmp *_libX11_so_tramp_table+584(%rip)
2:
  pushq $73
  .cfi_adjust_cfa_offset 8
  call _libX11_so_save_regs_and_resolve
  addq $8, %rsp
  .cfi_adjust_cfa_offset -8
  jmp 1b
  .cfi_endproc

/*
 * Copyright 2018-2021 Yury Gribov
 *
 * The MIT License (MIT)
 *
 * Use of this source code is governed by MIT license that can be
 * found in the LICENSE.txt file.
 */

  .globl XCreateRegion
  .p2align 4
  .type XCreateRegion, %function
#ifdef IMPLIB_HIDDEN_SHIMS
  .hidden XCreateRegion
#endif
XCreateRegion:
  .cfi_startproc
  // Intel opt. manual says to
  // "make the fall-through code following a conditional branch be the likely target for a branch with a forward target"
  // to hint static predictor.
  cmpq $0, _libX11_so_tramp_table+592(%rip)
  je 2f
1:
  jmp *_libX11_so_tramp_table+592(%rip)
2:
  pushq $74
  .cfi_adjust_cfa_offset 8
  call _libX11_so_save_regs_and_resolve
  addq $8, %rsp
  .cfi_adjust_cfa_offset -8
  jmp 1b
  .cfi_endproc

/*
 * Copyright 2018-2021 Yury Gribov
 *
 * The MIT License (MIT)
 *
 * Use of this source code is governed by MIT license that can be
 * found in the LICENSE.txt file.
 */

  .globl XCreateSimpleWindow
  .p2align 4
  .type XCreateSimpleWindow, %function
#ifdef IMPLIB_HIDDEN_SHIMS
  .hidden XCreateSimpleWindow
#endif
XCreateSimpleWindow:
  .cfi_startproc
  // Intel opt. manual says to
  // "make the fall-through code following a conditional branch be the likely target for a branch with a forward target"
  // to hint static predictor.
  cmpq $0, _libX11_so_tramp_table+600(%rip)
  je 2f
1:
  jmp *_libX11_so_tramp_table+600(%rip)
2:
  pushq $75
  .cfi_adjust_cfa_offset 8
  call _libX11_so_save_regs_and_resolve
  addq $8, %rsp
  .cfi_adjust_cfa_offset -8
  jmp 1b
  .cfi_endproc

/*
 * Copyright 2018-2021 Yury Gribov
 *
 * The MIT License (MIT)
 *
 * Use of this source code is governed by MIT license that can be
 * found in the LICENSE.txt file.
 */

  .globl XCreateWindow
  .p2align 4
  .type XCreateWindow, %function
#ifdef IMPLIB_HIDDEN_SHIMS
  .hidden XCreateWindow
#endif
XCreateWindow:
  .cfi_startproc
  // Intel opt. manual says to
  // "make the fall-through code following a conditional branch be the likely target for a branch with a forward target"
  // to hint static predictor.
  cmpq $0, _libX11_so_tramp_table+608(%rip)
  je 2f
1:
  jmp *_libX11_so_tramp_table+608(%rip)
2:
  pushq $76
  .cfi_adjust_cfa_offset 8
  call _libX11_so_save_regs_and_resolve
  addq $8, %rsp
  .cfi_adjust_cfa_offset -8
  jmp 1b
  .cfi_endproc

/*
 * Copyright 2018-2021 Yury Gribov
 *
 * The MIT License (MIT)
 *
 * Use of this source code is governed by MIT license that can be
 * found in the LICENSE.txt file.
 */

  .globl XDefaultColormap
  .p2align 4
  .type XDefaultColormap, %function
#ifdef IMPLIB_HIDDEN_SHIMS
  .hidden XDefaultColormap
#endif
XDefaultColormap:
  .cfi_startproc
  // Intel opt. manual says to
  // "make the fall-through code following a conditional branch be the likely target for a branch with a forward target"
  // to hint static predictor.
  cmpq $0, _libX11_so_tramp_table+616(%rip)
  je 2f
1:
  jmp *_libX11_so_tramp_table+616(%rip)
2:
  pushq $77
  .cfi_adjust_cfa_offset 8
  call _libX11_so_save_regs_and_resolve
  addq $8, %rsp
  .cfi_adjust_cfa_offset -8
  jmp 1b
  .cfi_endproc

/*
 * Copyright 2018-2021 Yury Gribov
 *
 * The MIT License (MIT)
 *
 * Use of this source code is governed by MIT license that can be
 * found in the LICENSE.txt file.
 */

  .globl XDefaultColormapOfScreen
  .p2align 4
  .type XDefaultColormapOfScreen, %function
#ifdef IMPLIB_HIDDEN_SHIMS
  .hidden XDefaultColormapOfScreen
#endif
XDefaultColormapOfScreen:
  .cfi_startproc
  // Intel opt. manual says to
  // "make the fall-through code following a conditional branch be the likely target for a branch with a forward target"
  // to hint static predictor.
  cmpq $0, _libX11_so_tramp_table+624(%rip)
  je 2f
1:
  jmp *_libX11_so_tramp_table+624(%rip)
2:
  pushq $78
  .cfi_adjust_cfa_offset 8
  call _libX11_so_save_regs_and_resolve
  addq $8, %rsp
  .cfi_adjust_cfa_offset -8
  jmp 1b
  .cfi_endproc

/*
 * Copyright 2018-2021 Yury Gribov
 *
 * The MIT License (MIT)
 *
 * Use of this source code is governed by MIT license that can be
 * found in the LICENSE.txt file.
 */

  .globl XDefaultDepth
  .p2align 4
  .type XDefaultDepth, %function
#ifdef IMPLIB_HIDDEN_SHIMS
  .hidden XDefaultDepth
#endif
XDefaultDepth:
  .cfi_startproc
  // Intel opt. manual says to
  // "make the fall-through code following a conditional branch be the likely target for a branch with a forward target"
  // to hint static predictor.
  cmpq $0, _libX11_so_tramp_table+632(%rip)
  je 2f
1:
  jmp *_libX11_so_tramp_table+632(%rip)
2:
  pushq $79
  .cfi_adjust_cfa_offset 8
  call _libX11_so_save_regs_and_resolve
  addq $8, %rsp
  .cfi_adjust_cfa_offset -8
  jmp 1b
  .cfi_endproc

/*
 * Copyright 2018-2021 Yury Gribov
 *
 * The MIT License (MIT)
 *
 * Use of this source code is governed by MIT license that can be
 * found in the LICENSE.txt file.
 */

  .globl XDefaultDepthOfScreen
  .p2align 4
  .type XDefaultDepthOfScreen, %function
#ifdef IMPLIB_HIDDEN_SHIMS
  .hidden XDefaultDepthOfScreen
#endif
XDefaultDepthOfScreen:
  .cfi_startproc
  // Intel opt. manual says to
  // "make the fall-through code following a conditional branch be the likely target for a branch with a forward target"
  // to hint static predictor.
  cmpq $0, _libX11_so_tramp_table+640(%rip)
  je 2f
1:
  jmp *_libX11_so_tramp_table+640(%rip)
2:
  pushq $80
  .cfi_adjust_cfa_offset 8
  call _libX11_so_save_regs_and_resolve
  addq $8, %rsp
  .cfi_adjust_cfa_offset -8
  jmp 1b
  .cfi_endproc

/*
 * Copyright 2018-2021 Yury Gribov
 *
 * The MIT License (MIT)
 *
 * Use of this source code is governed by MIT license that can be
 * found in the LICENSE.txt file.
 */

  .globl XDefaultGC
  .p2align 4
  .type XDefaultGC, %function
#ifdef IMPLIB_HIDDEN_SHIMS
  .hidden XDefaultGC
#endif
XDefaultGC:
  .cfi_startproc
  // Intel opt. manual says to
  // "make the fall-through code following a conditional branch be the likely target for a branch with a forward target"
  // to hint static predictor.
  cmpq $0, _libX11_so_tramp_table+648(%rip)
  je 2f
1:
  jmp *_libX11_so_tramp_table+648(%rip)
2:
  pushq $81
  .cfi_adjust_cfa_offset 8
  call _libX11_so_save_regs_and_resolve
  addq $8, %rsp
  .cfi_adjust_cfa_offset -8
  jmp 1b
  .cfi_endproc

/*
 * Copyright 2018-2021 Yury Gribov
 *
 * The MIT License (MIT)
 *
 * Use of this source code is governed by MIT license that can be
 * found in the LICENSE.txt file.
 */

  .globl XDefaultGCOfScreen
  .p2align 4
  .type XDefaultGCOfScreen, %function
#ifdef IMPLIB_HIDDEN_SHIMS
  .hidden XDefaultGCOfScreen
#endif
XDefaultGCOfScreen:
  .cfi_startproc
  // Intel opt. manual says to
  // "make the fall-through code following a conditional branch be the likely target for a branch with a forward target"
  // to hint static predictor.
  cmpq $0, _libX11_so_tramp_table+656(%rip)
  je 2f
1:
  jmp *_libX11_so_tramp_table+656(%rip)
2:
  pushq $82
  .cfi_adjust_cfa_offset 8
  call _libX11_so_save_regs_and_resolve
  addq $8, %rsp
  .cfi_adjust_cfa_offset -8
  jmp 1b
  .cfi_endproc

/*
 * Copyright 2018-2021 Yury Gribov
 *
 * The MIT License (MIT)
 *
 * Use of this source code is governed by MIT license that can be
 * found in the LICENSE.txt file.
 */

  .globl XDefaultRootWindow
  .p2align 4
  .type XDefaultRootWindow, %function
#ifdef IMPLIB_HIDDEN_SHIMS
  .hidden XDefaultRootWindow
#endif
XDefaultRootWindow:
  .cfi_startproc
  // Intel opt. manual says to
  // "make the fall-through code following a conditional branch be the likely target for a branch with a forward target"
  // to hint static predictor.
  cmpq $0, _libX11_so_tramp_table+664(%rip)
  je 2f
1:
  jmp *_libX11_so_tramp_table+664(%rip)
2:
  pushq $83
  .cfi_adjust_cfa_offset 8
  call _libX11_so_save_regs_and_resolve
  addq $8, %rsp
  .cfi_adjust_cfa_offset -8
  jmp 1b
  .cfi_endproc

/*
 * Copyright 2018-2021 Yury Gribov
 *
 * The MIT License (MIT)
 *
 * Use of this source code is governed by MIT license that can be
 * found in the LICENSE.txt file.
 */

  .globl XDefaultScreen
  .p2align 4
  .type XDefaultScreen, %function
#ifdef IMPLIB_HIDDEN_SHIMS
  .hidden XDefaultScreen
#endif
XDefaultScreen:
  .cfi_startproc
  // Intel opt. manual says to
  // "make the fall-through code following a conditional branch be the likely target for a branch with a forward target"
  // to hint static predictor.
  cmpq $0, _libX11_so_tramp_table+672(%rip)
  je 2f
1:
  jmp *_libX11_so_tramp_table+672(%rip)
2:
  pushq $84
  .cfi_adjust_cfa_offset 8
  call _libX11_so_save_regs_and_resolve
  addq $8, %rsp
  .cfi_adjust_cfa_offset -8
  jmp 1b
  .cfi_endproc

/*
 * Copyright 2018-2021 Yury Gribov
 *
 * The MIT License (MIT)
 *
 * Use of this source code is governed by MIT license that can be
 * found in the LICENSE.txt file.
 */

  .globl XDefaultScreenOfDisplay
  .p2align 4
  .type XDefaultScreenOfDisplay, %function
#ifdef IMPLIB_HIDDEN_SHIMS
  .hidden XDefaultScreenOfDisplay
#endif
XDefaultScreenOfDisplay:
  .cfi_startproc
  // Intel opt. manual says to
  // "make the fall-through code following a conditional branch be the likely target for a branch with a forward target"
  // to hint static predictor.
  cmpq $0, _libX11_so_tramp_table+680(%rip)
  je 2f
1:
  jmp *_libX11_so_tramp_table+680(%rip)
2:
  pushq $85
  .cfi_adjust_cfa_offset 8
  call _libX11_so_save_regs_and_resolve
  addq $8, %rsp
  .cfi_adjust_cfa_offset -8
  jmp 1b
  .cfi_endproc

/*
 * Copyright 2018-2021 Yury Gribov
 *
 * The MIT License (MIT)
 *
 * Use of this source code is governed by MIT license that can be
 * found in the LICENSE.txt file.
 */

  .globl XDefaultString
  .p2align 4
  .type XDefaultString, %function
#ifdef IMPLIB_HIDDEN_SHIMS
  .hidden XDefaultString
#endif
XDefaultString:
  .cfi_startproc
  // Intel opt. manual says to
  // "make the fall-through code following a conditional branch be the likely target for a branch with a forward target"
  // to hint static predictor.
  cmpq $0, _libX11_so_tramp_table+688(%rip)
  je 2f
1:
  jmp *_libX11_so_tramp_table+688(%rip)
2:
  pushq $86
  .cfi_adjust_cfa_offset 8
  call _libX11_so_save_regs_and_resolve
  addq $8, %rsp
  .cfi_adjust_cfa_offset -8
  jmp 1b
  .cfi_endproc

/*
 * Copyright 2018-2021 Yury Gribov
 *
 * The MIT License (MIT)
 *
 * Use of this source code is governed by MIT license that can be
 * found in the LICENSE.txt file.
 */

  .globl XDefaultVisual
  .p2align 4
  .type XDefaultVisual, %function
#ifdef IMPLIB_HIDDEN_SHIMS
  .hidden XDefaultVisual
#endif
XDefaultVisual:
  .cfi_startproc
  // Intel opt. manual says to
  // "make the fall-through code following a conditional branch be the likely target for a branch with a forward target"
  // to hint static predictor.
  cmpq $0, _libX11_so_tramp_table+696(%rip)
  je 2f
1:
  jmp *_libX11_so_tramp_table+696(%rip)
2:
  pushq $87
  .cfi_adjust_cfa_offset 8
  call _libX11_so_save_regs_and_resolve
  addq $8, %rsp
  .cfi_adjust_cfa_offset -8
  jmp 1b
  .cfi_endproc

/*
 * Copyright 2018-2021 Yury Gribov
 *
 * The MIT License (MIT)
 *
 * Use of this source code is governed by MIT license that can be
 * found in the LICENSE.txt file.
 */

  .globl XDefaultVisualOfScreen
  .p2align 4
  .type XDefaultVisualOfScreen, %function
#ifdef IMPLIB_HIDDEN_SHIMS
  .hidden XDefaultVisualOfScreen
#endif
XDefaultVisualOfScreen:
  .cfi_startproc
  // Intel opt. manual says to
  // "make the fall-through code following a conditional branch be the likely target for a branch with a forward target"
  // to hint static predictor.
  cmpq $0, _libX11_so_tramp_table+704(%rip)
  je 2f
1:
  jmp *_libX11_so_tramp_table+704(%rip)
2:
  pushq $88
  .cfi_adjust_cfa_offset 8
  call _libX11_so_save_regs_and_resolve
  addq $8, %rsp
  .cfi_adjust_cfa_offset -8
  jmp 1b
  .cfi_endproc

/*
 * Copyright 2018-2021 Yury Gribov
 *
 * The MIT License (MIT)
 *
 * Use of this source code is governed by MIT license that can be
 * found in the LICENSE.txt file.
 */

  .globl XDefineCursor
  .p2align 4
  .type XDefineCursor, %function
#ifdef IMPLIB_HIDDEN_SHIMS
  .hidden XDefineCursor
#endif
XDefineCursor:
  .cfi_startproc
  // Intel opt. manual says to
  // "make the fall-through code following a conditional branch be the likely target for a branch with a forward target"
  // to hint static predictor.
  cmpq $0, _libX11_so_tramp_table+712(%rip)
  je 2f
1:
  jmp *_libX11_so_tramp_table+712(%rip)
2:
  pushq $89
  .cfi_adjust_cfa_offset 8
  call _libX11_so_save_regs_and_resolve
  addq $8, %rsp
  .cfi_adjust_cfa_offset -8
  jmp 1b
  .cfi_endproc

/*
 * Copyright 2018-2021 Yury Gribov
 *
 * The MIT License (MIT)
 *
 * Use of this source code is governed by MIT license that can be
 * found in the LICENSE.txt file.
 */

  .globl XDeleteContext
  .p2align 4
  .type XDeleteContext, %function
#ifdef IMPLIB_HIDDEN_SHIMS
  .hidden XDeleteContext
#endif
XDeleteContext:
  .cfi_startproc
  // Intel opt. manual says to
  // "make the fall-through code following a conditional branch be the likely target for a branch with a forward target"
  // to hint static predictor.
  cmpq $0, _libX11_so_tramp_table+720(%rip)
  je 2f
1:
  jmp *_libX11_so_tramp_table+720(%rip)
2:
  pushq $90
  .cfi_adjust_cfa_offset 8
  call _libX11_so_save_regs_and_resolve
  addq $8, %rsp
  .cfi_adjust_cfa_offset -8
  jmp 1b
  .cfi_endproc

/*
 * Copyright 2018-2021 Yury Gribov
 *
 * The MIT License (MIT)
 *
 * Use of this source code is governed by MIT license that can be
 * found in the LICENSE.txt file.
 */

  .globl XDeleteModifiermapEntry
  .p2align 4
  .type XDeleteModifiermapEntry, %function
#ifdef IMPLIB_HIDDEN_SHIMS
  .hidden XDeleteModifiermapEntry
#endif
XDeleteModifiermapEntry:
  .cfi_startproc
  // Intel opt. manual says to
  // "make the fall-through code following a conditional branch be the likely target for a branch with a forward target"
  // to hint static predictor.
  cmpq $0, _libX11_so_tramp_table+728(%rip)
  je 2f
1:
  jmp *_libX11_so_tramp_table+728(%rip)
2:
  pushq $91
  .cfi_adjust_cfa_offset 8
  call _libX11_so_save_regs_and_resolve
  addq $8, %rsp
  .cfi_adjust_cfa_offset -8
  jmp 1b
  .cfi_endproc

/*
 * Copyright 2018-2021 Yury Gribov
 *
 * The MIT License (MIT)
 *
 * Use of this source code is governed by MIT license that can be
 * found in the LICENSE.txt file.
 */

  .globl XDeleteProperty
  .p2align 4
  .type XDeleteProperty, %function
#ifdef IMPLIB_HIDDEN_SHIMS
  .hidden XDeleteProperty
#endif
XDeleteProperty:
  .cfi_startproc
  // Intel opt. manual says to
  // "make the fall-through code following a conditional branch be the likely target for a branch with a forward target"
  // to hint static predictor.
  cmpq $0, _libX11_so_tramp_table+736(%rip)
  je 2f
1:
  jmp *_libX11_so_tramp_table+736(%rip)
2:
  pushq $92
  .cfi_adjust_cfa_offset 8
  call _libX11_so_save_regs_and_resolve
  addq $8, %rsp
  .cfi_adjust_cfa_offset -8
  jmp 1b
  .cfi_endproc

/*
 * Copyright 2018-2021 Yury Gribov
 *
 * The MIT License (MIT)
 *
 * Use of this source code is governed by MIT license that can be
 * found in the LICENSE.txt file.
 */

  .globl XDestroyIC
  .p2align 4
  .type XDestroyIC, %function
#ifdef IMPLIB_HIDDEN_SHIMS
  .hidden XDestroyIC
#endif
XDestroyIC:
  .cfi_startproc
  // Intel opt. manual says to
  // "make the fall-through code following a conditional branch be the likely target for a branch with a forward target"
  // to hint static predictor.
  cmpq $0, _libX11_so_tramp_table+744(%rip)
  je 2f
1:
  jmp *_libX11_so_tramp_table+744(%rip)
2:
  pushq $93
  .cfi_adjust_cfa_offset 8
  call _libX11_so_save_regs_and_resolve
  addq $8, %rsp
  .cfi_adjust_cfa_offset -8
  jmp 1b
  .cfi_endproc

/*
 * Copyright 2018-2021 Yury Gribov
 *
 * The MIT License (MIT)
 *
 * Use of this source code is governed by MIT license that can be
 * found in the LICENSE.txt file.
 */

  .globl XDestroyImage
  .p2align 4
  .type XDestroyImage, %function
#ifdef IMPLIB_HIDDEN_SHIMS
  .hidden XDestroyImage
#endif
XDestroyImage:
  .cfi_startproc
  // Intel opt. manual says to
  // "make the fall-through code following a conditional branch be the likely target for a branch with a forward target"
  // to hint static predictor.
  cmpq $0, _libX11_so_tramp_table+752(%rip)
  je 2f
1:
  jmp *_libX11_so_tramp_table+752(%rip)
2:
  pushq $94
  .cfi_adjust_cfa_offset 8
  call _libX11_so_save_regs_and_resolve
  addq $8, %rsp
  .cfi_adjust_cfa_offset -8
  jmp 1b
  .cfi_endproc

/*
 * Copyright 2018-2021 Yury Gribov
 *
 * The MIT License (MIT)
 *
 * Use of this source code is governed by MIT license that can be
 * found in the LICENSE.txt file.
 */

  .globl XDestroyOC
  .p2align 4
  .type XDestroyOC, %function
#ifdef IMPLIB_HIDDEN_SHIMS
  .hidden XDestroyOC
#endif
XDestroyOC:
  .cfi_startproc
  // Intel opt. manual says to
  // "make the fall-through code following a conditional branch be the likely target for a branch with a forward target"
  // to hint static predictor.
  cmpq $0, _libX11_so_tramp_table+760(%rip)
  je 2f
1:
  jmp *_libX11_so_tramp_table+760(%rip)
2:
  pushq $95
  .cfi_adjust_cfa_offset 8
  call _libX11_so_save_regs_and_resolve
  addq $8, %rsp
  .cfi_adjust_cfa_offset -8
  jmp 1b
  .cfi_endproc

/*
 * Copyright 2018-2021 Yury Gribov
 *
 * The MIT License (MIT)
 *
 * Use of this source code is governed by MIT license that can be
 * found in the LICENSE.txt file.
 */

  .globl XDestroyRegion
  .p2align 4
  .type XDestroyRegion, %function
#ifdef IMPLIB_HIDDEN_SHIMS
  .hidden XDestroyRegion
#endif
XDestroyRegion:
  .cfi_startproc
  // Intel opt. manual says to
  // "make the fall-through code following a conditional branch be the likely target for a branch with a forward target"
  // to hint static predictor.
  cmpq $0, _libX11_so_tramp_table+768(%rip)
  je 2f
1:
  jmp *_libX11_so_tramp_table+768(%rip)
2:
  pushq $96
  .cfi_adjust_cfa_offset 8
  call _libX11_so_save_regs_and_resolve
  addq $8, %rsp
  .cfi_adjust_cfa_offset -8
  jmp 1b
  .cfi_endproc

/*
 * Copyright 2018-2021 Yury Gribov
 *
 * The MIT License (MIT)
 *
 * Use of this source code is governed by MIT license that can be
 * found in the LICENSE.txt file.
 */

  .globl XDestroySubwindows
  .p2align 4
  .type XDestroySubwindows, %function
#ifdef IMPLIB_HIDDEN_SHIMS
  .hidden XDestroySubwindows
#endif
XDestroySubwindows:
  .cfi_startproc
  // Intel opt. manual says to
  // "make the fall-through code following a conditional branch be the likely target for a branch with a forward target"
  // to hint static predictor.
  cmpq $0, _libX11_so_tramp_table+776(%rip)
  je 2f
1:
  jmp *_libX11_so_tramp_table+776(%rip)
2:
  pushq $97
  .cfi_adjust_cfa_offset 8
  call _libX11_so_save_regs_and_resolve
  addq $8, %rsp
  .cfi_adjust_cfa_offset -8
  jmp 1b
  .cfi_endproc

/*
 * Copyright 2018-2021 Yury Gribov
 *
 * The MIT License (MIT)
 *
 * Use of this source code is governed by MIT license that can be
 * found in the LICENSE.txt file.
 */

  .globl XDestroyWindow
  .p2align 4
  .type XDestroyWindow, %function
#ifdef IMPLIB_HIDDEN_SHIMS
  .hidden XDestroyWindow
#endif
XDestroyWindow:
  .cfi_startproc
  // Intel opt. manual says to
  // "make the fall-through code following a conditional branch be the likely target for a branch with a forward target"
  // to hint static predictor.
  cmpq $0, _libX11_so_tramp_table+784(%rip)
  je 2f
1:
  jmp *_libX11_so_tramp_table+784(%rip)
2:
  pushq $98
  .cfi_adjust_cfa_offset 8
  call _libX11_so_save_regs_and_resolve
  addq $8, %rsp
  .cfi_adjust_cfa_offset -8
  jmp 1b
  .cfi_endproc

/*
 * Copyright 2018-2021 Yury Gribov
 *
 * The MIT License (MIT)
 *
 * Use of this source code is governed by MIT license that can be
 * found in the LICENSE.txt file.
 */

  .globl XDirectionalDependentDrawing
  .p2align 4
  .type XDirectionalDependentDrawing, %function
#ifdef IMPLIB_HIDDEN_SHIMS
  .hidden XDirectionalDependentDrawing
#endif
XDirectionalDependentDrawing:
  .cfi_startproc
  // Intel opt. manual says to
  // "make the fall-through code following a conditional branch be the likely target for a branch with a forward target"
  // to hint static predictor.
  cmpq $0, _libX11_so_tramp_table+792(%rip)
  je 2f
1:
  jmp *_libX11_so_tramp_table+792(%rip)
2:
  pushq $99
  .cfi_adjust_cfa_offset 8
  call _libX11_so_save_regs_and_resolve
  addq $8, %rsp
  .cfi_adjust_cfa_offset -8
  jmp 1b
  .cfi_endproc

/*
 * Copyright 2018-2021 Yury Gribov
 *
 * The MIT License (MIT)
 *
 * Use of this source code is governed by MIT license that can be
 * found in the LICENSE.txt file.
 */

  .globl XDisableAccessControl
  .p2align 4
  .type XDisableAccessControl, %function
#ifdef IMPLIB_HIDDEN_SHIMS
  .hidden XDisableAccessControl
#endif
XDisableAccessControl:
  .cfi_startproc
  // Intel opt. manual says to
  // "make the fall-through code following a conditional branch be the likely target for a branch with a forward target"
  // to hint static predictor.
  cmpq $0, _libX11_so_tramp_table+800(%rip)
  je 2f
1:
  jmp *_libX11_so_tramp_table+800(%rip)
2:
  pushq $100
  .cfi_adjust_cfa_offset 8
  call _libX11_so_save_regs_and_resolve
  addq $8, %rsp
  .cfi_adjust_cfa_offset -8
  jmp 1b
  .cfi_endproc

/*
 * Copyright 2018-2021 Yury Gribov
 *
 * The MIT License (MIT)
 *
 * Use of this source code is governed by MIT license that can be
 * found in the LICENSE.txt file.
 */

  .globl XDisplayCells
  .p2align 4
  .type XDisplayCells, %function
#ifdef IMPLIB_HIDDEN_SHIMS
  .hidden XDisplayCells
#endif
XDisplayCells:
  .cfi_startproc
  // Intel opt. manual says to
  // "make the fall-through code following a conditional branch be the likely target for a branch with a forward target"
  // to hint static predictor.
  cmpq $0, _libX11_so_tramp_table+808(%rip)
  je 2f
1:
  jmp *_libX11_so_tramp_table+808(%rip)
2:
  pushq $101
  .cfi_adjust_cfa_offset 8
  call _libX11_so_save_regs_and_resolve
  addq $8, %rsp
  .cfi_adjust_cfa_offset -8
  jmp 1b
  .cfi_endproc

/*
 * Copyright 2018-2021 Yury Gribov
 *
 * The MIT License (MIT)
 *
 * Use of this source code is governed by MIT license that can be
 * found in the LICENSE.txt file.
 */

  .globl XDisplayHeight
  .p2align 4
  .type XDisplayHeight, %function
#ifdef IMPLIB_HIDDEN_SHIMS
  .hidden XDisplayHeight
#endif
XDisplayHeight:
  .cfi_startproc
  // Intel opt. manual says to
  // "make the fall-through code following a conditional branch be the likely target for a branch with a forward target"
  // to hint static predictor.
  cmpq $0, _libX11_so_tramp_table+816(%rip)
  je 2f
1:
  jmp *_libX11_so_tramp_table+816(%rip)
2:
  pushq $102
  .cfi_adjust_cfa_offset 8
  call _libX11_so_save_regs_and_resolve
  addq $8, %rsp
  .cfi_adjust_cfa_offset -8
  jmp 1b
  .cfi_endproc

/*
 * Copyright 2018-2021 Yury Gribov
 *
 * The MIT License (MIT)
 *
 * Use of this source code is governed by MIT license that can be
 * found in the LICENSE.txt file.
 */

  .globl XDisplayHeightMM
  .p2align 4
  .type XDisplayHeightMM, %function
#ifdef IMPLIB_HIDDEN_SHIMS
  .hidden XDisplayHeightMM
#endif
XDisplayHeightMM:
  .cfi_startproc
  // Intel opt. manual says to
  // "make the fall-through code following a conditional branch be the likely target for a branch with a forward target"
  // to hint static predictor.
  cmpq $0, _libX11_so_tramp_table+824(%rip)
  je 2f
1:
  jmp *_libX11_so_tramp_table+824(%rip)
2:
  pushq $103
  .cfi_adjust_cfa_offset 8
  call _libX11_so_save_regs_and_resolve
  addq $8, %rsp
  .cfi_adjust_cfa_offset -8
  jmp 1b
  .cfi_endproc

/*
 * Copyright 2018-2021 Yury Gribov
 *
 * The MIT License (MIT)
 *
 * Use of this source code is governed by MIT license that can be
 * found in the LICENSE.txt file.
 */

  .globl XDisplayKeycodes
  .p2align 4
  .type XDisplayKeycodes, %function
#ifdef IMPLIB_HIDDEN_SHIMS
  .hidden XDisplayKeycodes
#endif
XDisplayKeycodes:
  .cfi_startproc
  // Intel opt. manual says to
  // "make the fall-through code following a conditional branch be the likely target for a branch with a forward target"
  // to hint static predictor.
  cmpq $0, _libX11_so_tramp_table+832(%rip)
  je 2f
1:
  jmp *_libX11_so_tramp_table+832(%rip)
2:
  pushq $104
  .cfi_adjust_cfa_offset 8
  call _libX11_so_save_regs_and_resolve
  addq $8, %rsp
  .cfi_adjust_cfa_offset -8
  jmp 1b
  .cfi_endproc

/*
 * Copyright 2018-2021 Yury Gribov
 *
 * The MIT License (MIT)
 *
 * Use of this source code is governed by MIT license that can be
 * found in the LICENSE.txt file.
 */

  .globl XDisplayMotionBufferSize
  .p2align 4
  .type XDisplayMotionBufferSize, %function
#ifdef IMPLIB_HIDDEN_SHIMS
  .hidden XDisplayMotionBufferSize
#endif
XDisplayMotionBufferSize:
  .cfi_startproc
  // Intel opt. manual says to
  // "make the fall-through code following a conditional branch be the likely target for a branch with a forward target"
  // to hint static predictor.
  cmpq $0, _libX11_so_tramp_table+840(%rip)
  je 2f
1:
  jmp *_libX11_so_tramp_table+840(%rip)
2:
  pushq $105
  .cfi_adjust_cfa_offset 8
  call _libX11_so_save_regs_and_resolve
  addq $8, %rsp
  .cfi_adjust_cfa_offset -8
  jmp 1b
  .cfi_endproc

/*
 * Copyright 2018-2021 Yury Gribov
 *
 * The MIT License (MIT)
 *
 * Use of this source code is governed by MIT license that can be
 * found in the LICENSE.txt file.
 */

  .globl XDisplayName
  .p2align 4
  .type XDisplayName, %function
#ifdef IMPLIB_HIDDEN_SHIMS
  .hidden XDisplayName
#endif
XDisplayName:
  .cfi_startproc
  // Intel opt. manual says to
  // "make the fall-through code following a conditional branch be the likely target for a branch with a forward target"
  // to hint static predictor.
  cmpq $0, _libX11_so_tramp_table+848(%rip)
  je 2f
1:
  jmp *_libX11_so_tramp_table+848(%rip)
2:
  pushq $106
  .cfi_adjust_cfa_offset 8
  call _libX11_so_save_regs_and_resolve
  addq $8, %rsp
  .cfi_adjust_cfa_offset -8
  jmp 1b
  .cfi_endproc

/*
 * Copyright 2018-2021 Yury Gribov
 *
 * The MIT License (MIT)
 *
 * Use of this source code is governed by MIT license that can be
 * found in the LICENSE.txt file.
 */

  .globl XDisplayOfIM
  .p2align 4
  .type XDisplayOfIM, %function
#ifdef IMPLIB_HIDDEN_SHIMS
  .hidden XDisplayOfIM
#endif
XDisplayOfIM:
  .cfi_startproc
  // Intel opt. manual says to
  // "make the fall-through code following a conditional branch be the likely target for a branch with a forward target"
  // to hint static predictor.
  cmpq $0, _libX11_so_tramp_table+856(%rip)
  je 2f
1:
  jmp *_libX11_so_tramp_table+856(%rip)
2:
  pushq $107
  .cfi_adjust_cfa_offset 8
  call _libX11_so_save_regs_and_resolve
  addq $8, %rsp
  .cfi_adjust_cfa_offset -8
  jmp 1b
  .cfi_endproc

/*
 * Copyright 2018-2021 Yury Gribov
 *
 * The MIT License (MIT)
 *
 * Use of this source code is governed by MIT license that can be
 * found in the LICENSE.txt file.
 */

  .globl XDisplayOfOM
  .p2align 4
  .type XDisplayOfOM, %function
#ifdef IMPLIB_HIDDEN_SHIMS
  .hidden XDisplayOfOM
#endif
XDisplayOfOM:
  .cfi_startproc
  // Intel opt. manual says to
  // "make the fall-through code following a conditional branch be the likely target for a branch with a forward target"
  // to hint static predictor.
  cmpq $0, _libX11_so_tramp_table+864(%rip)
  je 2f
1:
  jmp *_libX11_so_tramp_table+864(%rip)
2:
  pushq $108
  .cfi_adjust_cfa_offset 8
  call _libX11_so_save_regs_and_resolve
  addq $8, %rsp
  .cfi_adjust_cfa_offset -8
  jmp 1b
  .cfi_endproc

/*
 * Copyright 2018-2021 Yury Gribov
 *
 * The MIT License (MIT)
 *
 * Use of this source code is governed by MIT license that can be
 * found in the LICENSE.txt file.
 */

  .globl XDisplayOfScreen
  .p2align 4
  .type XDisplayOfScreen, %function
#ifdef IMPLIB_HIDDEN_SHIMS
  .hidden XDisplayOfScreen
#endif
XDisplayOfScreen:
  .cfi_startproc
  // Intel opt. manual says to
  // "make the fall-through code following a conditional branch be the likely target for a branch with a forward target"
  // to hint static predictor.
  cmpq $0, _libX11_so_tramp_table+872(%rip)
  je 2f
1:
  jmp *_libX11_so_tramp_table+872(%rip)
2:
  pushq $109
  .cfi_adjust_cfa_offset 8
  call _libX11_so_save_regs_and_resolve
  addq $8, %rsp
  .cfi_adjust_cfa_offset -8
  jmp 1b
  .cfi_endproc

/*
 * Copyright 2018-2021 Yury Gribov
 *
 * The MIT License (MIT)
 *
 * Use of this source code is governed by MIT license that can be
 * found in the LICENSE.txt file.
 */

  .globl XDisplayPlanes
  .p2align 4
  .type XDisplayPlanes, %function
#ifdef IMPLIB_HIDDEN_SHIMS
  .hidden XDisplayPlanes
#endif
XDisplayPlanes:
  .cfi_startproc
  // Intel opt. manual says to
  // "make the fall-through code following a conditional branch be the likely target for a branch with a forward target"
  // to hint static predictor.
  cmpq $0, _libX11_so_tramp_table+880(%rip)
  je 2f
1:
  jmp *_libX11_so_tramp_table+880(%rip)
2:
  pushq $110
  .cfi_adjust_cfa_offset 8
  call _libX11_so_save_regs_and_resolve
  addq $8, %rsp
  .cfi_adjust_cfa_offset -8
  jmp 1b
  .cfi_endproc

/*
 * Copyright 2018-2021 Yury Gribov
 *
 * The MIT License (MIT)
 *
 * Use of this source code is governed by MIT license that can be
 * found in the LICENSE.txt file.
 */

  .globl XDisplayString
  .p2align 4
  .type XDisplayString, %function
#ifdef IMPLIB_HIDDEN_SHIMS
  .hidden XDisplayString
#endif
XDisplayString:
  .cfi_startproc
  // Intel opt. manual says to
  // "make the fall-through code following a conditional branch be the likely target for a branch with a forward target"
  // to hint static predictor.
  cmpq $0, _libX11_so_tramp_table+888(%rip)
  je 2f
1:
  jmp *_libX11_so_tramp_table+888(%rip)
2:
  pushq $111
  .cfi_adjust_cfa_offset 8
  call _libX11_so_save_regs_and_resolve
  addq $8, %rsp
  .cfi_adjust_cfa_offset -8
  jmp 1b
  .cfi_endproc

/*
 * Copyright 2018-2021 Yury Gribov
 *
 * The MIT License (MIT)
 *
 * Use of this source code is governed by MIT license that can be
 * found in the LICENSE.txt file.
 */

  .globl XDisplayWidth
  .p2align 4
  .type XDisplayWidth, %function
#ifdef IMPLIB_HIDDEN_SHIMS
  .hidden XDisplayWidth
#endif
XDisplayWidth:
  .cfi_startproc
  // Intel opt. manual says to
  // "make the fall-through code following a conditional branch be the likely target for a branch with a forward target"
  // to hint static predictor.
  cmpq $0, _libX11_so_tramp_table+896(%rip)
  je 2f
1:
  jmp *_libX11_so_tramp_table+896(%rip)
2:
  pushq $112
  .cfi_adjust_cfa_offset 8
  call _libX11_so_save_regs_and_resolve
  addq $8, %rsp
  .cfi_adjust_cfa_offset -8
  jmp 1b
  .cfi_endproc

/*
 * Copyright 2018-2021 Yury Gribov
 *
 * The MIT License (MIT)
 *
 * Use of this source code is governed by MIT license that can be
 * found in the LICENSE.txt file.
 */

  .globl XDisplayWidthMM
  .p2align 4
  .type XDisplayWidthMM, %function
#ifdef IMPLIB_HIDDEN_SHIMS
  .hidden XDisplayWidthMM
#endif
XDisplayWidthMM:
  .cfi_startproc
  // Intel opt. manual says to
  // "make the fall-through code following a conditional branch be the likely target for a branch with a forward target"
  // to hint static predictor.
  cmpq $0, _libX11_so_tramp_table+904(%rip)
  je 2f
1:
  jmp *_libX11_so_tramp_table+904(%rip)
2:
  pushq $113
  .cfi_adjust_cfa_offset 8
  call _libX11_so_save_regs_and_resolve
  addq $8, %rsp
  .cfi_adjust_cfa_offset -8
  jmp 1b
  .cfi_endproc

/*
 * Copyright 2018-2021 Yury Gribov
 *
 * The MIT License (MIT)
 *
 * Use of this source code is governed by MIT license that can be
 * found in the LICENSE.txt file.
 */

  .globl XDoesBackingStore
  .p2align 4
  .type XDoesBackingStore, %function
#ifdef IMPLIB_HIDDEN_SHIMS
  .hidden XDoesBackingStore
#endif
XDoesBackingStore:
  .cfi_startproc
  // Intel opt. manual says to
  // "make the fall-through code following a conditional branch be the likely target for a branch with a forward target"
  // to hint static predictor.
  cmpq $0, _libX11_so_tramp_table+912(%rip)
  je 2f
1:
  jmp *_libX11_so_tramp_table+912(%rip)
2:
  pushq $114
  .cfi_adjust_cfa_offset 8
  call _libX11_so_save_regs_and_resolve
  addq $8, %rsp
  .cfi_adjust_cfa_offset -8
  jmp 1b
  .cfi_endproc

/*
 * Copyright 2018-2021 Yury Gribov
 *
 * The MIT License (MIT)
 *
 * Use of this source code is governed by MIT license that can be
 * found in the LICENSE.txt file.
 */

  .globl XDoesSaveUnders
  .p2align 4
  .type XDoesSaveUnders, %function
#ifdef IMPLIB_HIDDEN_SHIMS
  .hidden XDoesSaveUnders
#endif
XDoesSaveUnders:
  .cfi_startproc
  // Intel opt. manual says to
  // "make the fall-through code following a conditional branch be the likely target for a branch with a forward target"
  // to hint static predictor.
  cmpq $0, _libX11_so_tramp_table+920(%rip)
  je 2f
1:
  jmp *_libX11_so_tramp_table+920(%rip)
2:
  pushq $115
  .cfi_adjust_cfa_offset 8
  call _libX11_so_save_regs_and_resolve
  addq $8, %rsp
  .cfi_adjust_cfa_offset -8
  jmp 1b
  .cfi_endproc

/*
 * Copyright 2018-2021 Yury Gribov
 *
 * The MIT License (MIT)
 *
 * Use of this source code is governed by MIT license that can be
 * found in the LICENSE.txt file.
 */

  .globl XDrawArc
  .p2align 4
  .type XDrawArc, %function
#ifdef IMPLIB_HIDDEN_SHIMS
  .hidden XDrawArc
#endif
XDrawArc:
  .cfi_startproc
  // Intel opt. manual says to
  // "make the fall-through code following a conditional branch be the likely target for a branch with a forward target"
  // to hint static predictor.
  cmpq $0, _libX11_so_tramp_table+928(%rip)
  je 2f
1:
  jmp *_libX11_so_tramp_table+928(%rip)
2:
  pushq $116
  .cfi_adjust_cfa_offset 8
  call _libX11_so_save_regs_and_resolve
  addq $8, %rsp
  .cfi_adjust_cfa_offset -8
  jmp 1b
  .cfi_endproc

/*
 * Copyright 2018-2021 Yury Gribov
 *
 * The MIT License (MIT)
 *
 * Use of this source code is governed by MIT license that can be
 * found in the LICENSE.txt file.
 */

  .globl XDrawArcs
  .p2align 4
  .type XDrawArcs, %function
#ifdef IMPLIB_HIDDEN_SHIMS
  .hidden XDrawArcs
#endif
XDrawArcs:
  .cfi_startproc
  // Intel opt. manual says to
  // "make the fall-through code following a conditional branch be the likely target for a branch with a forward target"
  // to hint static predictor.
  cmpq $0, _libX11_so_tramp_table+936(%rip)
  je 2f
1:
  jmp *_libX11_so_tramp_table+936(%rip)
2:
  pushq $117
  .cfi_adjust_cfa_offset 8
  call _libX11_so_save_regs_and_resolve
  addq $8, %rsp
  .cfi_adjust_cfa_offset -8
  jmp 1b
  .cfi_endproc

/*
 * Copyright 2018-2021 Yury Gribov
 *
 * The MIT License (MIT)
 *
 * Use of this source code is governed by MIT license that can be
 * found in the LICENSE.txt file.
 */

  .globl XDrawImageString
  .p2align 4
  .type XDrawImageString, %function
#ifdef IMPLIB_HIDDEN_SHIMS
  .hidden XDrawImageString
#endif
XDrawImageString:
  .cfi_startproc
  // Intel opt. manual says to
  // "make the fall-through code following a conditional branch be the likely target for a branch with a forward target"
  // to hint static predictor.
  cmpq $0, _libX11_so_tramp_table+944(%rip)
  je 2f
1:
  jmp *_libX11_so_tramp_table+944(%rip)
2:
  pushq $118
  .cfi_adjust_cfa_offset 8
  call _libX11_so_save_regs_and_resolve
  addq $8, %rsp
  .cfi_adjust_cfa_offset -8
  jmp 1b
  .cfi_endproc

/*
 * Copyright 2018-2021 Yury Gribov
 *
 * The MIT License (MIT)
 *
 * Use of this source code is governed by MIT license that can be
 * found in the LICENSE.txt file.
 */

  .globl XDrawImageString16
  .p2align 4
  .type XDrawImageString16, %function
#ifdef IMPLIB_HIDDEN_SHIMS
  .hidden XDrawImageString16
#endif
XDrawImageString16:
  .cfi_startproc
  // Intel opt. manual says to
  // "make the fall-through code following a conditional branch be the likely target for a branch with a forward target"
  // to hint static predictor.
  cmpq $0, _libX11_so_tramp_table+952(%rip)
  je 2f
1:
  jmp *_libX11_so_tramp_table+952(%rip)
2:
  pushq $119
  .cfi_adjust_cfa_offset 8
  call _libX11_so_save_regs_and_resolve
  addq $8, %rsp
  .cfi_adjust_cfa_offset -8
  jmp 1b
  .cfi_endproc

/*
 * Copyright 2018-2021 Yury Gribov
 *
 * The MIT License (MIT)
 *
 * Use of this source code is governed by MIT license that can be
 * found in the LICENSE.txt file.
 */

  .globl XDrawLine
  .p2align 4
  .type XDrawLine, %function
#ifdef IMPLIB_HIDDEN_SHIMS
  .hidden XDrawLine
#endif
XDrawLine:
  .cfi_startproc
  // Intel opt. manual says to
  // "make the fall-through code following a conditional branch be the likely target for a branch with a forward target"
  // to hint static predictor.
  cmpq $0, _libX11_so_tramp_table+960(%rip)
  je 2f
1:
  jmp *_libX11_so_tramp_table+960(%rip)
2:
  pushq $120
  .cfi_adjust_cfa_offset 8
  call _libX11_so_save_regs_and_resolve
  addq $8, %rsp
  .cfi_adjust_cfa_offset -8
  jmp 1b
  .cfi_endproc

/*
 * Copyright 2018-2021 Yury Gribov
 *
 * The MIT License (MIT)
 *
 * Use of this source code is governed by MIT license that can be
 * found in the LICENSE.txt file.
 */

  .globl XDrawLines
  .p2align 4
  .type XDrawLines, %function
#ifdef IMPLIB_HIDDEN_SHIMS
  .hidden XDrawLines
#endif
XDrawLines:
  .cfi_startproc
  // Intel opt. manual says to
  // "make the fall-through code following a conditional branch be the likely target for a branch with a forward target"
  // to hint static predictor.
  cmpq $0, _libX11_so_tramp_table+968(%rip)
  je 2f
1:
  jmp *_libX11_so_tramp_table+968(%rip)
2:
  pushq $121
  .cfi_adjust_cfa_offset 8
  call _libX11_so_save_regs_and_resolve
  addq $8, %rsp
  .cfi_adjust_cfa_offset -8
  jmp 1b
  .cfi_endproc

/*
 * Copyright 2018-2021 Yury Gribov
 *
 * The MIT License (MIT)
 *
 * Use of this source code is governed by MIT license that can be
 * found in the LICENSE.txt file.
 */

  .globl XDrawPoint
  .p2align 4
  .type XDrawPoint, %function
#ifdef IMPLIB_HIDDEN_SHIMS
  .hidden XDrawPoint
#endif
XDrawPoint:
  .cfi_startproc
  // Intel opt. manual says to
  // "make the fall-through code following a conditional branch be the likely target for a branch with a forward target"
  // to hint static predictor.
  cmpq $0, _libX11_so_tramp_table+976(%rip)
  je 2f
1:
  jmp *_libX11_so_tramp_table+976(%rip)
2:
  pushq $122
  .cfi_adjust_cfa_offset 8
  call _libX11_so_save_regs_and_resolve
  addq $8, %rsp
  .cfi_adjust_cfa_offset -8
  jmp 1b
  .cfi_endproc

/*
 * Copyright 2018-2021 Yury Gribov
 *
 * The MIT License (MIT)
 *
 * Use of this source code is governed by MIT license that can be
 * found in the LICENSE.txt file.
 */

  .globl XDrawPoints
  .p2align 4
  .type XDrawPoints, %function
#ifdef IMPLIB_HIDDEN_SHIMS
  .hidden XDrawPoints
#endif
XDrawPoints:
  .cfi_startproc
  // Intel opt. manual says to
  // "make the fall-through code following a conditional branch be the likely target for a branch with a forward target"
  // to hint static predictor.
  cmpq $0, _libX11_so_tramp_table+984(%rip)
  je 2f
1:
  jmp *_libX11_so_tramp_table+984(%rip)
2:
  pushq $123
  .cfi_adjust_cfa_offset 8
  call _libX11_so_save_regs_and_resolve
  addq $8, %rsp
  .cfi_adjust_cfa_offset -8
  jmp 1b
  .cfi_endproc

/*
 * Copyright 2018-2021 Yury Gribov
 *
 * The MIT License (MIT)
 *
 * Use of this source code is governed by MIT license that can be
 * found in the LICENSE.txt file.
 */

  .globl XDrawRectangle
  .p2align 4
  .type XDrawRectangle, %function
#ifdef IMPLIB_HIDDEN_SHIMS
  .hidden XDrawRectangle
#endif
XDrawRectangle:
  .cfi_startproc
  // Intel opt. manual says to
  // "make the fall-through code following a conditional branch be the likely target for a branch with a forward target"
  // to hint static predictor.
  cmpq $0, _libX11_so_tramp_table+992(%rip)
  je 2f
1:
  jmp *_libX11_so_tramp_table+992(%rip)
2:
  pushq $124
  .cfi_adjust_cfa_offset 8
  call _libX11_so_save_regs_and_resolve
  addq $8, %rsp
  .cfi_adjust_cfa_offset -8
  jmp 1b
  .cfi_endproc

/*
 * Copyright 2018-2021 Yury Gribov
 *
 * The MIT License (MIT)
 *
 * Use of this source code is governed by MIT license that can be
 * found in the LICENSE.txt file.
 */

  .globl XDrawRectangles
  .p2align 4
  .type XDrawRectangles, %function
#ifdef IMPLIB_HIDDEN_SHIMS
  .hidden XDrawRectangles
#endif
XDrawRectangles:
  .cfi_startproc
  // Intel opt. manual says to
  // "make the fall-through code following a conditional branch be the likely target for a branch with a forward target"
  // to hint static predictor.
  cmpq $0, _libX11_so_tramp_table+1000(%rip)
  je 2f
1:
  jmp *_libX11_so_tramp_table+1000(%rip)
2:
  pushq $125
  .cfi_adjust_cfa_offset 8
  call _libX11_so_save_regs_and_resolve
  addq $8, %rsp
  .cfi_adjust_cfa_offset -8
  jmp 1b
  .cfi_endproc

/*
 * Copyright 2018-2021 Yury Gribov
 *
 * The MIT License (MIT)
 *
 * Use of this source code is governed by MIT license that can be
 * found in the LICENSE.txt file.
 */

  .globl XDrawSegments
  .p2align 4
  .type XDrawSegments, %function
#ifdef IMPLIB_HIDDEN_SHIMS
  .hidden XDrawSegments
#endif
XDrawSegments:
  .cfi_startproc
  // Intel opt. manual says to
  // "make the fall-through code following a conditional branch be the likely target for a branch with a forward target"
  // to hint static predictor.
  cmpq $0, _libX11_so_tramp_table+1008(%rip)
  je 2f
1:
  jmp *_libX11_so_tramp_table+1008(%rip)
2:
  pushq $126
  .cfi_adjust_cfa_offset 8
  call _libX11_so_save_regs_and_resolve
  addq $8, %rsp
  .cfi_adjust_cfa_offset -8
  jmp 1b
  .cfi_endproc

/*
 * Copyright 2018-2021 Yury Gribov
 *
 * The MIT License (MIT)
 *
 * Use of this source code is governed by MIT license that can be
 * found in the LICENSE.txt file.
 */

  .globl XDrawString
  .p2align 4
  .type XDrawString, %function
#ifdef IMPLIB_HIDDEN_SHIMS
  .hidden XDrawString
#endif
XDrawString:
  .cfi_startproc
  // Intel opt. manual says to
  // "make the fall-through code following a conditional branch be the likely target for a branch with a forward target"
  // to hint static predictor.
  cmpq $0, _libX11_so_tramp_table+1016(%rip)
  je 2f
1:
  jmp *_libX11_so_tramp_table+1016(%rip)
2:
  pushq $127
  .cfi_adjust_cfa_offset 8
  call _libX11_so_save_regs_and_resolve
  addq $8, %rsp
  .cfi_adjust_cfa_offset -8
  jmp 1b
  .cfi_endproc

/*
 * Copyright 2018-2021 Yury Gribov
 *
 * The MIT License (MIT)
 *
 * Use of this source code is governed by MIT license that can be
 * found in the LICENSE.txt file.
 */

  .globl XDrawString16
  .p2align 4
  .type XDrawString16, %function
#ifdef IMPLIB_HIDDEN_SHIMS
  .hidden XDrawString16
#endif
XDrawString16:
  .cfi_startproc
  // Intel opt. manual says to
  // "make the fall-through code following a conditional branch be the likely target for a branch with a forward target"
  // to hint static predictor.
  cmpq $0, _libX11_so_tramp_table+1024(%rip)
  je 2f
1:
  jmp *_libX11_so_tramp_table+1024(%rip)
2:
  pushq $128
  .cfi_adjust_cfa_offset 8
  call _libX11_so_save_regs_and_resolve
  addq $8, %rsp
  .cfi_adjust_cfa_offset -8
  jmp 1b
  .cfi_endproc

/*
 * Copyright 2018-2021 Yury Gribov
 *
 * The MIT License (MIT)
 *
 * Use of this source code is governed by MIT license that can be
 * found in the LICENSE.txt file.
 */

  .globl XDrawText
  .p2align 4
  .type XDrawText, %function
#ifdef IMPLIB_HIDDEN_SHIMS
  .hidden XDrawText
#endif
XDrawText:
  .cfi_startproc
  // Intel opt. manual says to
  // "make the fall-through code following a conditional branch be the likely target for a branch with a forward target"
  // to hint static predictor.
  cmpq $0, _libX11_so_tramp_table+1032(%rip)
  je 2f
1:
  jmp *_libX11_so_tramp_table+1032(%rip)
2:
  pushq $129
  .cfi_adjust_cfa_offset 8
  call _libX11_so_save_regs_and_resolve
  addq $8, %rsp
  .cfi_adjust_cfa_offset -8
  jmp 1b
  .cfi_endproc

/*
 * Copyright 2018-2021 Yury Gribov
 *
 * The MIT License (MIT)
 *
 * Use of this source code is governed by MIT license that can be
 * found in the LICENSE.txt file.
 */

  .globl XDrawText16
  .p2align 4
  .type XDrawText16, %function
#ifdef IMPLIB_HIDDEN_SHIMS
  .hidden XDrawText16
#endif
XDrawText16:
  .cfi_startproc
  // Intel opt. manual says to
  // "make the fall-through code following a conditional branch be the likely target for a branch with a forward target"
  // to hint static predictor.
  cmpq $0, _libX11_so_tramp_table+1040(%rip)
  je 2f
1:
  jmp *_libX11_so_tramp_table+1040(%rip)
2:
  pushq $130
  .cfi_adjust_cfa_offset 8
  call _libX11_so_save_regs_and_resolve
  addq $8, %rsp
  .cfi_adjust_cfa_offset -8
  jmp 1b
  .cfi_endproc

/*
 * Copyright 2018-2021 Yury Gribov
 *
 * The MIT License (MIT)
 *
 * Use of this source code is governed by MIT license that can be
 * found in the LICENSE.txt file.
 */

  .globl XEHeadOfExtensionList
  .p2align 4
  .type XEHeadOfExtensionList, %function
#ifdef IMPLIB_HIDDEN_SHIMS
  .hidden XEHeadOfExtensionList
#endif
XEHeadOfExtensionList:
  .cfi_startproc
  // Intel opt. manual says to
  // "make the fall-through code following a conditional branch be the likely target for a branch with a forward target"
  // to hint static predictor.
  cmpq $0, _libX11_so_tramp_table+1048(%rip)
  je 2f
1:
  jmp *_libX11_so_tramp_table+1048(%rip)
2:
  pushq $131
  .cfi_adjust_cfa_offset 8
  call _libX11_so_save_regs_and_resolve
  addq $8, %rsp
  .cfi_adjust_cfa_offset -8
  jmp 1b
  .cfi_endproc

/*
 * Copyright 2018-2021 Yury Gribov
 *
 * The MIT License (MIT)
 *
 * Use of this source code is governed by MIT license that can be
 * found in the LICENSE.txt file.
 */

  .globl XESetBeforeFlush
  .p2align 4
  .type XESetBeforeFlush, %function
#ifdef IMPLIB_HIDDEN_SHIMS
  .hidden XESetBeforeFlush
#endif
XESetBeforeFlush:
  .cfi_startproc
  // Intel opt. manual says to
  // "make the fall-through code following a conditional branch be the likely target for a branch with a forward target"
  // to hint static predictor.
  cmpq $0, _libX11_so_tramp_table+1056(%rip)
  je 2f
1:
  jmp *_libX11_so_tramp_table+1056(%rip)
2:
  pushq $132
  .cfi_adjust_cfa_offset 8
  call _libX11_so_save_regs_and_resolve
  addq $8, %rsp
  .cfi_adjust_cfa_offset -8
  jmp 1b
  .cfi_endproc

/*
 * Copyright 2018-2021 Yury Gribov
 *
 * The MIT License (MIT)
 *
 * Use of this source code is governed by MIT license that can be
 * found in the LICENSE.txt file.
 */

  .globl XESetCloseDisplay
  .p2align 4
  .type XESetCloseDisplay, %function
#ifdef IMPLIB_HIDDEN_SHIMS
  .hidden XESetCloseDisplay
#endif
XESetCloseDisplay:
  .cfi_startproc
  // Intel opt. manual says to
  // "make the fall-through code following a conditional branch be the likely target for a branch with a forward target"
  // to hint static predictor.
  cmpq $0, _libX11_so_tramp_table+1064(%rip)
  je 2f
1:
  jmp *_libX11_so_tramp_table+1064(%rip)
2:
  pushq $133
  .cfi_adjust_cfa_offset 8
  call _libX11_so_save_regs_and_resolve
  addq $8, %rsp
  .cfi_adjust_cfa_offset -8
  jmp 1b
  .cfi_endproc

/*
 * Copyright 2018-2021 Yury Gribov
 *
 * The MIT License (MIT)
 *
 * Use of this source code is governed by MIT license that can be
 * found in the LICENSE.txt file.
 */

  .globl XESetCopyEventCookie
  .p2align 4
  .type XESetCopyEventCookie, %function
#ifdef IMPLIB_HIDDEN_SHIMS
  .hidden XESetCopyEventCookie
#endif
XESetCopyEventCookie:
  .cfi_startproc
  // Intel opt. manual says to
  // "make the fall-through code following a conditional branch be the likely target for a branch with a forward target"
  // to hint static predictor.
  cmpq $0, _libX11_so_tramp_table+1072(%rip)
  je 2f
1:
  jmp *_libX11_so_tramp_table+1072(%rip)
2:
  pushq $134
  .cfi_adjust_cfa_offset 8
  call _libX11_so_save_regs_and_resolve
  addq $8, %rsp
  .cfi_adjust_cfa_offset -8
  jmp 1b
  .cfi_endproc

/*
 * Copyright 2018-2021 Yury Gribov
 *
 * The MIT License (MIT)
 *
 * Use of this source code is governed by MIT license that can be
 * found in the LICENSE.txt file.
 */

  .globl XESetCopyGC
  .p2align 4
  .type XESetCopyGC, %function
#ifdef IMPLIB_HIDDEN_SHIMS
  .hidden XESetCopyGC
#endif
XESetCopyGC:
  .cfi_startproc
  // Intel opt. manual says to
  // "make the fall-through code following a conditional branch be the likely target for a branch with a forward target"
  // to hint static predictor.
  cmpq $0, _libX11_so_tramp_table+1080(%rip)
  je 2f
1:
  jmp *_libX11_so_tramp_table+1080(%rip)
2:
  pushq $135
  .cfi_adjust_cfa_offset 8
  call _libX11_so_save_regs_and_resolve
  addq $8, %rsp
  .cfi_adjust_cfa_offset -8
  jmp 1b
  .cfi_endproc

/*
 * Copyright 2018-2021 Yury Gribov
 *
 * The MIT License (MIT)
 *
 * Use of this source code is governed by MIT license that can be
 * found in the LICENSE.txt file.
 */

  .globl XESetCreateFont
  .p2align 4
  .type XESetCreateFont, %function
#ifdef IMPLIB_HIDDEN_SHIMS
  .hidden XESetCreateFont
#endif
XESetCreateFont:
  .cfi_startproc
  // Intel opt. manual says to
  // "make the fall-through code following a conditional branch be the likely target for a branch with a forward target"
  // to hint static predictor.
  cmpq $0, _libX11_so_tramp_table+1088(%rip)
  je 2f
1:
  jmp *_libX11_so_tramp_table+1088(%rip)
2:
  pushq $136
  .cfi_adjust_cfa_offset 8
  call _libX11_so_save_regs_and_resolve
  addq $8, %rsp
  .cfi_adjust_cfa_offset -8
  jmp 1b
  .cfi_endproc

/*
 * Copyright 2018-2021 Yury Gribov
 *
 * The MIT License (MIT)
 *
 * Use of this source code is governed by MIT license that can be
 * found in the LICENSE.txt file.
 */

  .globl XESetCreateGC
  .p2align 4
  .type XESetCreateGC, %function
#ifdef IMPLIB_HIDDEN_SHIMS
  .hidden XESetCreateGC
#endif
XESetCreateGC:
  .cfi_startproc
  // Intel opt. manual says to
  // "make the fall-through code following a conditional branch be the likely target for a branch with a forward target"
  // to hint static predictor.
  cmpq $0, _libX11_so_tramp_table+1096(%rip)
  je 2f
1:
  jmp *_libX11_so_tramp_table+1096(%rip)
2:
  pushq $137
  .cfi_adjust_cfa_offset 8
  call _libX11_so_save_regs_and_resolve
  addq $8, %rsp
  .cfi_adjust_cfa_offset -8
  jmp 1b
  .cfi_endproc

/*
 * Copyright 2018-2021 Yury Gribov
 *
 * The MIT License (MIT)
 *
 * Use of this source code is governed by MIT license that can be
 * found in the LICENSE.txt file.
 */

  .globl XESetError
  .p2align 4
  .type XESetError, %function
#ifdef IMPLIB_HIDDEN_SHIMS
  .hidden XESetError
#endif
XESetError:
  .cfi_startproc
  // Intel opt. manual says to
  // "make the fall-through code following a conditional branch be the likely target for a branch with a forward target"
  // to hint static predictor.
  cmpq $0, _libX11_so_tramp_table+1104(%rip)
  je 2f
1:
  jmp *_libX11_so_tramp_table+1104(%rip)
2:
  pushq $138
  .cfi_adjust_cfa_offset 8
  call _libX11_so_save_regs_and_resolve
  addq $8, %rsp
  .cfi_adjust_cfa_offset -8
  jmp 1b
  .cfi_endproc

/*
 * Copyright 2018-2021 Yury Gribov
 *
 * The MIT License (MIT)
 *
 * Use of this source code is governed by MIT license that can be
 * found in the LICENSE.txt file.
 */

  .globl XESetErrorString
  .p2align 4
  .type XESetErrorString, %function
#ifdef IMPLIB_HIDDEN_SHIMS
  .hidden XESetErrorString
#endif
XESetErrorString:
  .cfi_startproc
  // Intel opt. manual says to
  // "make the fall-through code following a conditional branch be the likely target for a branch with a forward target"
  // to hint static predictor.
  cmpq $0, _libX11_so_tramp_table+1112(%rip)
  je 2f
1:
  jmp *_libX11_so_tramp_table+1112(%rip)
2:
  pushq $139
  .cfi_adjust_cfa_offset 8
  call _libX11_so_save_regs_and_resolve
  addq $8, %rsp
  .cfi_adjust_cfa_offset -8
  jmp 1b
  .cfi_endproc

/*
 * Copyright 2018-2021 Yury Gribov
 *
 * The MIT License (MIT)
 *
 * Use of this source code is governed by MIT license that can be
 * found in the LICENSE.txt file.
 */

  .globl XESetEventToWire
  .p2align 4
  .type XESetEventToWire, %function
#ifdef IMPLIB_HIDDEN_SHIMS
  .hidden XESetEventToWire
#endif
XESetEventToWire:
  .cfi_startproc
  // Intel opt. manual says to
  // "make the fall-through code following a conditional branch be the likely target for a branch with a forward target"
  // to hint static predictor.
  cmpq $0, _libX11_so_tramp_table+1120(%rip)
  je 2f
1:
  jmp *_libX11_so_tramp_table+1120(%rip)
2:
  pushq $140
  .cfi_adjust_cfa_offset 8
  call _libX11_so_save_regs_and_resolve
  addq $8, %rsp
  .cfi_adjust_cfa_offset -8
  jmp 1b
  .cfi_endproc

/*
 * Copyright 2018-2021 Yury Gribov
 *
 * The MIT License (MIT)
 *
 * Use of this source code is governed by MIT license that can be
 * found in the LICENSE.txt file.
 */

  .globl XESetFlushGC
  .p2align 4
  .type XESetFlushGC, %function
#ifdef IMPLIB_HIDDEN_SHIMS
  .hidden XESetFlushGC
#endif
XESetFlushGC:
  .cfi_startproc
  // Intel opt. manual says to
  // "make the fall-through code following a conditional branch be the likely target for a branch with a forward target"
  // to hint static predictor.
  cmpq $0, _libX11_so_tramp_table+1128(%rip)
  je 2f
1:
  jmp *_libX11_so_tramp_table+1128(%rip)
2:
  pushq $141
  .cfi_adjust_cfa_offset 8
  call _libX11_so_save_regs_and_resolve
  addq $8, %rsp
  .cfi_adjust_cfa_offset -8
  jmp 1b
  .cfi_endproc

/*
 * Copyright 2018-2021 Yury Gribov
 *
 * The MIT License (MIT)
 *
 * Use of this source code is governed by MIT license that can be
 * found in the LICENSE.txt file.
 */

  .globl XESetFreeFont
  .p2align 4
  .type XESetFreeFont, %function
#ifdef IMPLIB_HIDDEN_SHIMS
  .hidden XESetFreeFont
#endif
XESetFreeFont:
  .cfi_startproc
  // Intel opt. manual says to
  // "make the fall-through code following a conditional branch be the likely target for a branch with a forward target"
  // to hint static predictor.
  cmpq $0, _libX11_so_tramp_table+1136(%rip)
  je 2f
1:
  jmp *_libX11_so_tramp_table+1136(%rip)
2:
  pushq $142
  .cfi_adjust_cfa_offset 8
  call _libX11_so_save_regs_and_resolve
  addq $8, %rsp
  .cfi_adjust_cfa_offset -8
  jmp 1b
  .cfi_endproc

/*
 * Copyright 2018-2021 Yury Gribov
 *
 * The MIT License (MIT)
 *
 * Use of this source code is governed by MIT license that can be
 * found in the LICENSE.txt file.
 */

  .globl XESetFreeGC
  .p2align 4
  .type XESetFreeGC, %function
#ifdef IMPLIB_HIDDEN_SHIMS
  .hidden XESetFreeGC
#endif
XESetFreeGC:
  .cfi_startproc
  // Intel opt. manual says to
  // "make the fall-through code following a conditional branch be the likely target for a branch with a forward target"
  // to hint static predictor.
  cmpq $0, _libX11_so_tramp_table+1144(%rip)
  je 2f
1:
  jmp *_libX11_so_tramp_table+1144(%rip)
2:
  pushq $143
  .cfi_adjust_cfa_offset 8
  call _libX11_so_save_regs_and_resolve
  addq $8, %rsp
  .cfi_adjust_cfa_offset -8
  jmp 1b
  .cfi_endproc

/*
 * Copyright 2018-2021 Yury Gribov
 *
 * The MIT License (MIT)
 *
 * Use of this source code is governed by MIT license that can be
 * found in the LICENSE.txt file.
 */

  .globl XESetPrintErrorValues
  .p2align 4
  .type XESetPrintErrorValues, %function
#ifdef IMPLIB_HIDDEN_SHIMS
  .hidden XESetPrintErrorValues
#endif
XESetPrintErrorValues:
  .cfi_startproc
  // Intel opt. manual says to
  // "make the fall-through code following a conditional branch be the likely target for a branch with a forward target"
  // to hint static predictor.
  cmpq $0, _libX11_so_tramp_table+1152(%rip)
  je 2f
1:
  jmp *_libX11_so_tramp_table+1152(%rip)
2:
  pushq $144
  .cfi_adjust_cfa_offset 8
  call _libX11_so_save_regs_and_resolve
  addq $8, %rsp
  .cfi_adjust_cfa_offset -8
  jmp 1b
  .cfi_endproc

/*
 * Copyright 2018-2021 Yury Gribov
 *
 * The MIT License (MIT)
 *
 * Use of this source code is governed by MIT license that can be
 * found in the LICENSE.txt file.
 */

  .globl XESetWireToError
  .p2align 4
  .type XESetWireToError, %function
#ifdef IMPLIB_HIDDEN_SHIMS
  .hidden XESetWireToError
#endif
XESetWireToError:
  .cfi_startproc
  // Intel opt. manual says to
  // "make the fall-through code following a conditional branch be the likely target for a branch with a forward target"
  // to hint static predictor.
  cmpq $0, _libX11_so_tramp_table+1160(%rip)
  je 2f
1:
  jmp *_libX11_so_tramp_table+1160(%rip)
2:
  pushq $145
  .cfi_adjust_cfa_offset 8
  call _libX11_so_save_regs_and_resolve
  addq $8, %rsp
  .cfi_adjust_cfa_offset -8
  jmp 1b
  .cfi_endproc

/*
 * Copyright 2018-2021 Yury Gribov
 *
 * The MIT License (MIT)
 *
 * Use of this source code is governed by MIT license that can be
 * found in the LICENSE.txt file.
 */

  .globl XESetWireToEvent
  .p2align 4
  .type XESetWireToEvent, %function
#ifdef IMPLIB_HIDDEN_SHIMS
  .hidden XESetWireToEvent
#endif
XESetWireToEvent:
  .cfi_startproc
  // Intel opt. manual says to
  // "make the fall-through code following a conditional branch be the likely target for a branch with a forward target"
  // to hint static predictor.
  cmpq $0, _libX11_so_tramp_table+1168(%rip)
  je 2f
1:
  jmp *_libX11_so_tramp_table+1168(%rip)
2:
  pushq $146
  .cfi_adjust_cfa_offset 8
  call _libX11_so_save_regs_and_resolve
  addq $8, %rsp
  .cfi_adjust_cfa_offset -8
  jmp 1b
  .cfi_endproc

/*
 * Copyright 2018-2021 Yury Gribov
 *
 * The MIT License (MIT)
 *
 * Use of this source code is governed by MIT license that can be
 * found in the LICENSE.txt file.
 */

  .globl XESetWireToEventCookie
  .p2align 4
  .type XESetWireToEventCookie, %function
#ifdef IMPLIB_HIDDEN_SHIMS
  .hidden XESetWireToEventCookie
#endif
XESetWireToEventCookie:
  .cfi_startproc
  // Intel opt. manual says to
  // "make the fall-through code following a conditional branch be the likely target for a branch with a forward target"
  // to hint static predictor.
  cmpq $0, _libX11_so_tramp_table+1176(%rip)
  je 2f
1:
  jmp *_libX11_so_tramp_table+1176(%rip)
2:
  pushq $147
  .cfi_adjust_cfa_offset 8
  call _libX11_so_save_regs_and_resolve
  addq $8, %rsp
  .cfi_adjust_cfa_offset -8
  jmp 1b
  .cfi_endproc

/*
 * Copyright 2018-2021 Yury Gribov
 *
 * The MIT License (MIT)
 *
 * Use of this source code is governed by MIT license that can be
 * found in the LICENSE.txt file.
 */

  .globl XEmptyRegion
  .p2align 4
  .type XEmptyRegion, %function
#ifdef IMPLIB_HIDDEN_SHIMS
  .hidden XEmptyRegion
#endif
XEmptyRegion:
  .cfi_startproc
  // Intel opt. manual says to
  // "make the fall-through code following a conditional branch be the likely target for a branch with a forward target"
  // to hint static predictor.
  cmpq $0, _libX11_so_tramp_table+1184(%rip)
  je 2f
1:
  jmp *_libX11_so_tramp_table+1184(%rip)
2:
  pushq $148
  .cfi_adjust_cfa_offset 8
  call _libX11_so_save_regs_and_resolve
  addq $8, %rsp
  .cfi_adjust_cfa_offset -8
  jmp 1b
  .cfi_endproc

/*
 * Copyright 2018-2021 Yury Gribov
 *
 * The MIT License (MIT)
 *
 * Use of this source code is governed by MIT license that can be
 * found in the LICENSE.txt file.
 */

  .globl XEnableAccessControl
  .p2align 4
  .type XEnableAccessControl, %function
#ifdef IMPLIB_HIDDEN_SHIMS
  .hidden XEnableAccessControl
#endif
XEnableAccessControl:
  .cfi_startproc
  // Intel opt. manual says to
  // "make the fall-through code following a conditional branch be the likely target for a branch with a forward target"
  // to hint static predictor.
  cmpq $0, _libX11_so_tramp_table+1192(%rip)
  je 2f
1:
  jmp *_libX11_so_tramp_table+1192(%rip)
2:
  pushq $149
  .cfi_adjust_cfa_offset 8
  call _libX11_so_save_regs_and_resolve
  addq $8, %rsp
  .cfi_adjust_cfa_offset -8
  jmp 1b
  .cfi_endproc

/*
 * Copyright 2018-2021 Yury Gribov
 *
 * The MIT License (MIT)
 *
 * Use of this source code is governed by MIT license that can be
 * found in the LICENSE.txt file.
 */

  .globl XEqualRegion
  .p2align 4
  .type XEqualRegion, %function
#ifdef IMPLIB_HIDDEN_SHIMS
  .hidden XEqualRegion
#endif
XEqualRegion:
  .cfi_startproc
  // Intel opt. manual says to
  // "make the fall-through code following a conditional branch be the likely target for a branch with a forward target"
  // to hint static predictor.
  cmpq $0, _libX11_so_tramp_table+1200(%rip)
  je 2f
1:
  jmp *_libX11_so_tramp_table+1200(%rip)
2:
  pushq $150
  .cfi_adjust_cfa_offset 8
  call _libX11_so_save_regs_and_resolve
  addq $8, %rsp
  .cfi_adjust_cfa_offset -8
  jmp 1b
  .cfi_endproc

/*
 * Copyright 2018-2021 Yury Gribov
 *
 * The MIT License (MIT)
 *
 * Use of this source code is governed by MIT license that can be
 * found in the LICENSE.txt file.
 */

  .globl XEventMaskOfScreen
  .p2align 4
  .type XEventMaskOfScreen, %function
#ifdef IMPLIB_HIDDEN_SHIMS
  .hidden XEventMaskOfScreen
#endif
XEventMaskOfScreen:
  .cfi_startproc
  // Intel opt. manual says to
  // "make the fall-through code following a conditional branch be the likely target for a branch with a forward target"
  // to hint static predictor.
  cmpq $0, _libX11_so_tramp_table+1208(%rip)
  je 2f
1:
  jmp *_libX11_so_tramp_table+1208(%rip)
2:
  pushq $151
  .cfi_adjust_cfa_offset 8
  call _libX11_so_save_regs_and_resolve
  addq $8, %rsp
  .cfi_adjust_cfa_offset -8
  jmp 1b
  .cfi_endproc

/*
 * Copyright 2018-2021 Yury Gribov
 *
 * The MIT License (MIT)
 *
 * Use of this source code is governed by MIT license that can be
 * found in the LICENSE.txt file.
 */

  .globl XEventsQueued
  .p2align 4
  .type XEventsQueued, %function
#ifdef IMPLIB_HIDDEN_SHIMS
  .hidden XEventsQueued
#endif
XEventsQueued:
  .cfi_startproc
  // Intel opt. manual says to
  // "make the fall-through code following a conditional branch be the likely target for a branch with a forward target"
  // to hint static predictor.
  cmpq $0, _libX11_so_tramp_table+1216(%rip)
  je 2f
1:
  jmp *_libX11_so_tramp_table+1216(%rip)
2:
  pushq $152
  .cfi_adjust_cfa_offset 8
  call _libX11_so_save_regs_and_resolve
  addq $8, %rsp
  .cfi_adjust_cfa_offset -8
  jmp 1b
  .cfi_endproc

/*
 * Copyright 2018-2021 Yury Gribov
 *
 * The MIT License (MIT)
 *
 * Use of this source code is governed by MIT license that can be
 * found in the LICENSE.txt file.
 */

  .globl XExtendedMaxRequestSize
  .p2align 4
  .type XExtendedMaxRequestSize, %function
#ifdef IMPLIB_HIDDEN_SHIMS
  .hidden XExtendedMaxRequestSize
#endif
XExtendedMaxRequestSize:
  .cfi_startproc
  // Intel opt. manual says to
  // "make the fall-through code following a conditional branch be the likely target for a branch with a forward target"
  // to hint static predictor.
  cmpq $0, _libX11_so_tramp_table+1224(%rip)
  je 2f
1:
  jmp *_libX11_so_tramp_table+1224(%rip)
2:
  pushq $153
  .cfi_adjust_cfa_offset 8
  call _libX11_so_save_regs_and_resolve
  addq $8, %rsp
  .cfi_adjust_cfa_offset -8
  jmp 1b
  .cfi_endproc

/*
 * Copyright 2018-2021 Yury Gribov
 *
 * The MIT License (MIT)
 *
 * Use of this source code is governed by MIT license that can be
 * found in the LICENSE.txt file.
 */

  .globl XExtentsOfFontSet
  .p2align 4
  .type XExtentsOfFontSet, %function
#ifdef IMPLIB_HIDDEN_SHIMS
  .hidden XExtentsOfFontSet
#endif
XExtentsOfFontSet:
  .cfi_startproc
  // Intel opt. manual says to
  // "make the fall-through code following a conditional branch be the likely target for a branch with a forward target"
  // to hint static predictor.
  cmpq $0, _libX11_so_tramp_table+1232(%rip)
  je 2f
1:
  jmp *_libX11_so_tramp_table+1232(%rip)
2:
  pushq $154
  .cfi_adjust_cfa_offset 8
  call _libX11_so_save_regs_and_resolve
  addq $8, %rsp
  .cfi_adjust_cfa_offset -8
  jmp 1b
  .cfi_endproc

/*
 * Copyright 2018-2021 Yury Gribov
 *
 * The MIT License (MIT)
 *
 * Use of this source code is governed by MIT license that can be
 * found in the LICENSE.txt file.
 */

  .globl XFetchBuffer
  .p2align 4
  .type XFetchBuffer, %function
#ifdef IMPLIB_HIDDEN_SHIMS
  .hidden XFetchBuffer
#endif
XFetchBuffer:
  .cfi_startproc
  // Intel opt. manual says to
  // "make the fall-through code following a conditional branch be the likely target for a branch with a forward target"
  // to hint static predictor.
  cmpq $0, _libX11_so_tramp_table+1240(%rip)
  je 2f
1:
  jmp *_libX11_so_tramp_table+1240(%rip)
2:
  pushq $155
  .cfi_adjust_cfa_offset 8
  call _libX11_so_save_regs_and_resolve
  addq $8, %rsp
  .cfi_adjust_cfa_offset -8
  jmp 1b
  .cfi_endproc

/*
 * Copyright 2018-2021 Yury Gribov
 *
 * The MIT License (MIT)
 *
 * Use of this source code is governed by MIT license that can be
 * found in the LICENSE.txt file.
 */

  .globl XFetchBytes
  .p2align 4
  .type XFetchBytes, %function
#ifdef IMPLIB_HIDDEN_SHIMS
  .hidden XFetchBytes
#endif
XFetchBytes:
  .cfi_startproc
  // Intel opt. manual says to
  // "make the fall-through code following a conditional branch be the likely target for a branch with a forward target"
  // to hint static predictor.
  cmpq $0, _libX11_so_tramp_table+1248(%rip)
  je 2f
1:
  jmp *_libX11_so_tramp_table+1248(%rip)
2:
  pushq $156
  .cfi_adjust_cfa_offset 8
  call _libX11_so_save_regs_and_resolve
  addq $8, %rsp
  .cfi_adjust_cfa_offset -8
  jmp 1b
  .cfi_endproc

/*
 * Copyright 2018-2021 Yury Gribov
 *
 * The MIT License (MIT)
 *
 * Use of this source code is governed by MIT license that can be
 * found in the LICENSE.txt file.
 */

  .globl XFetchName
  .p2align 4
  .type XFetchName, %function
#ifdef IMPLIB_HIDDEN_SHIMS
  .hidden XFetchName
#endif
XFetchName:
  .cfi_startproc
  // Intel opt. manual says to
  // "make the fall-through code following a conditional branch be the likely target for a branch with a forward target"
  // to hint static predictor.
  cmpq $0, _libX11_so_tramp_table+1256(%rip)
  je 2f
1:
  jmp *_libX11_so_tramp_table+1256(%rip)
2:
  pushq $157
  .cfi_adjust_cfa_offset 8
  call _libX11_so_save_regs_and_resolve
  addq $8, %rsp
  .cfi_adjust_cfa_offset -8
  jmp 1b
  .cfi_endproc

/*
 * Copyright 2018-2021 Yury Gribov
 *
 * The MIT License (MIT)
 *
 * Use of this source code is governed by MIT license that can be
 * found in the LICENSE.txt file.
 */

  .globl XFillArc
  .p2align 4
  .type XFillArc, %function
#ifdef IMPLIB_HIDDEN_SHIMS
  .hidden XFillArc
#endif
XFillArc:
  .cfi_startproc
  // Intel opt. manual says to
  // "make the fall-through code following a conditional branch be the likely target for a branch with a forward target"
  // to hint static predictor.
  cmpq $0, _libX11_so_tramp_table+1264(%rip)
  je 2f
1:
  jmp *_libX11_so_tramp_table+1264(%rip)
2:
  pushq $158
  .cfi_adjust_cfa_offset 8
  call _libX11_so_save_regs_and_resolve
  addq $8, %rsp
  .cfi_adjust_cfa_offset -8
  jmp 1b
  .cfi_endproc

/*
 * Copyright 2018-2021 Yury Gribov
 *
 * The MIT License (MIT)
 *
 * Use of this source code is governed by MIT license that can be
 * found in the LICENSE.txt file.
 */

  .globl XFillArcs
  .p2align 4
  .type XFillArcs, %function
#ifdef IMPLIB_HIDDEN_SHIMS
  .hidden XFillArcs
#endif
XFillArcs:
  .cfi_startproc
  // Intel opt. manual says to
  // "make the fall-through code following a conditional branch be the likely target for a branch with a forward target"
  // to hint static predictor.
  cmpq $0, _libX11_so_tramp_table+1272(%rip)
  je 2f
1:
  jmp *_libX11_so_tramp_table+1272(%rip)
2:
  pushq $159
  .cfi_adjust_cfa_offset 8
  call _libX11_so_save_regs_and_resolve
  addq $8, %rsp
  .cfi_adjust_cfa_offset -8
  jmp 1b
  .cfi_endproc

/*
 * Copyright 2018-2021 Yury Gribov
 *
 * The MIT License (MIT)
 *
 * Use of this source code is governed by MIT license that can be
 * found in the LICENSE.txt file.
 */

  .globl XFillPolygon
  .p2align 4
  .type XFillPolygon, %function
#ifdef IMPLIB_HIDDEN_SHIMS
  .hidden XFillPolygon
#endif
XFillPolygon:
  .cfi_startproc
  // Intel opt. manual says to
  // "make the fall-through code following a conditional branch be the likely target for a branch with a forward target"
  // to hint static predictor.
  cmpq $0, _libX11_so_tramp_table+1280(%rip)
  je 2f
1:
  jmp *_libX11_so_tramp_table+1280(%rip)
2:
  pushq $160
  .cfi_adjust_cfa_offset 8
  call _libX11_so_save_regs_and_resolve
  addq $8, %rsp
  .cfi_adjust_cfa_offset -8
  jmp 1b
  .cfi_endproc

/*
 * Copyright 2018-2021 Yury Gribov
 *
 * The MIT License (MIT)
 *
 * Use of this source code is governed by MIT license that can be
 * found in the LICENSE.txt file.
 */

  .globl XFillRectangle
  .p2align 4
  .type XFillRectangle, %function
#ifdef IMPLIB_HIDDEN_SHIMS
  .hidden XFillRectangle
#endif
XFillRectangle:
  .cfi_startproc
  // Intel opt. manual says to
  // "make the fall-through code following a conditional branch be the likely target for a branch with a forward target"
  // to hint static predictor.
  cmpq $0, _libX11_so_tramp_table+1288(%rip)
  je 2f
1:
  jmp *_libX11_so_tramp_table+1288(%rip)
2:
  pushq $161
  .cfi_adjust_cfa_offset 8
  call _libX11_so_save_regs_and_resolve
  addq $8, %rsp
  .cfi_adjust_cfa_offset -8
  jmp 1b
  .cfi_endproc

/*
 * Copyright 2018-2021 Yury Gribov
 *
 * The MIT License (MIT)
 *
 * Use of this source code is governed by MIT license that can be
 * found in the LICENSE.txt file.
 */

  .globl XFillRectangles
  .p2align 4
  .type XFillRectangles, %function
#ifdef IMPLIB_HIDDEN_SHIMS
  .hidden XFillRectangles
#endif
XFillRectangles:
  .cfi_startproc
  // Intel opt. manual says to
  // "make the fall-through code following a conditional branch be the likely target for a branch with a forward target"
  // to hint static predictor.
  cmpq $0, _libX11_so_tramp_table+1296(%rip)
  je 2f
1:
  jmp *_libX11_so_tramp_table+1296(%rip)
2:
  pushq $162
  .cfi_adjust_cfa_offset 8
  call _libX11_so_save_regs_and_resolve
  addq $8, %rsp
  .cfi_adjust_cfa_offset -8
  jmp 1b
  .cfi_endproc

/*
 * Copyright 2018-2021 Yury Gribov
 *
 * The MIT License (MIT)
 *
 * Use of this source code is governed by MIT license that can be
 * found in the LICENSE.txt file.
 */

  .globl XFilterEvent
  .p2align 4
  .type XFilterEvent, %function
#ifdef IMPLIB_HIDDEN_SHIMS
  .hidden XFilterEvent
#endif
XFilterEvent:
  .cfi_startproc
  // Intel opt. manual says to
  // "make the fall-through code following a conditional branch be the likely target for a branch with a forward target"
  // to hint static predictor.
  cmpq $0, _libX11_so_tramp_table+1304(%rip)
  je 2f
1:
  jmp *_libX11_so_tramp_table+1304(%rip)
2:
  pushq $163
  .cfi_adjust_cfa_offset 8
  call _libX11_so_save_regs_and_resolve
  addq $8, %rsp
  .cfi_adjust_cfa_offset -8
  jmp 1b
  .cfi_endproc

/*
 * Copyright 2018-2021 Yury Gribov
 *
 * The MIT License (MIT)
 *
 * Use of this source code is governed by MIT license that can be
 * found in the LICENSE.txt file.
 */

  .globl XFindContext
  .p2align 4
  .type XFindContext, %function
#ifdef IMPLIB_HIDDEN_SHIMS
  .hidden XFindContext
#endif
XFindContext:
  .cfi_startproc
  // Intel opt. manual says to
  // "make the fall-through code following a conditional branch be the likely target for a branch with a forward target"
  // to hint static predictor.
  cmpq $0, _libX11_so_tramp_table+1312(%rip)
  je 2f
1:
  jmp *_libX11_so_tramp_table+1312(%rip)
2:
  pushq $164
  .cfi_adjust_cfa_offset 8
  call _libX11_so_save_regs_and_resolve
  addq $8, %rsp
  .cfi_adjust_cfa_offset -8
  jmp 1b
  .cfi_endproc

/*
 * Copyright 2018-2021 Yury Gribov
 *
 * The MIT License (MIT)
 *
 * Use of this source code is governed by MIT license that can be
 * found in the LICENSE.txt file.
 */

  .globl XFindOnExtensionList
  .p2align 4
  .type XFindOnExtensionList, %function
#ifdef IMPLIB_HIDDEN_SHIMS
  .hidden XFindOnExtensionList
#endif
XFindOnExtensionList:
  .cfi_startproc
  // Intel opt. manual says to
  // "make the fall-through code following a conditional branch be the likely target for a branch with a forward target"
  // to hint static predictor.
  cmpq $0, _libX11_so_tramp_table+1320(%rip)
  je 2f
1:
  jmp *_libX11_so_tramp_table+1320(%rip)
2:
  pushq $165
  .cfi_adjust_cfa_offset 8
  call _libX11_so_save_regs_and_resolve
  addq $8, %rsp
  .cfi_adjust_cfa_offset -8
  jmp 1b
  .cfi_endproc

/*
 * Copyright 2018-2021 Yury Gribov
 *
 * The MIT License (MIT)
 *
 * Use of this source code is governed by MIT license that can be
 * found in the LICENSE.txt file.
 */

  .globl XFlush
  .p2align 4
  .type XFlush, %function
#ifdef IMPLIB_HIDDEN_SHIMS
  .hidden XFlush
#endif
XFlush:
  .cfi_startproc
  // Intel opt. manual says to
  // "make the fall-through code following a conditional branch be the likely target for a branch with a forward target"
  // to hint static predictor.
  cmpq $0, _libX11_so_tramp_table+1328(%rip)
  je 2f
1:
  jmp *_libX11_so_tramp_table+1328(%rip)
2:
  pushq $166
  .cfi_adjust_cfa_offset 8
  call _libX11_so_save_regs_and_resolve
  addq $8, %rsp
  .cfi_adjust_cfa_offset -8
  jmp 1b
  .cfi_endproc

/*
 * Copyright 2018-2021 Yury Gribov
 *
 * The MIT License (MIT)
 *
 * Use of this source code is governed by MIT license that can be
 * found in the LICENSE.txt file.
 */

  .globl XFlushGC
  .p2align 4
  .type XFlushGC, %function
#ifdef IMPLIB_HIDDEN_SHIMS
  .hidden XFlushGC
#endif
XFlushGC:
  .cfi_startproc
  // Intel opt. manual says to
  // "make the fall-through code following a conditional branch be the likely target for a branch with a forward target"
  // to hint static predictor.
  cmpq $0, _libX11_so_tramp_table+1336(%rip)
  je 2f
1:
  jmp *_libX11_so_tramp_table+1336(%rip)
2:
  pushq $167
  .cfi_adjust_cfa_offset 8
  call _libX11_so_save_regs_and_resolve
  addq $8, %rsp
  .cfi_adjust_cfa_offset -8
  jmp 1b
  .cfi_endproc

/*
 * Copyright 2018-2021 Yury Gribov
 *
 * The MIT License (MIT)
 *
 * Use of this source code is governed by MIT license that can be
 * found in the LICENSE.txt file.
 */

  .globl XFontsOfFontSet
  .p2align 4
  .type XFontsOfFontSet, %function
#ifdef IMPLIB_HIDDEN_SHIMS
  .hidden XFontsOfFontSet
#endif
XFontsOfFontSet:
  .cfi_startproc
  // Intel opt. manual says to
  // "make the fall-through code following a conditional branch be the likely target for a branch with a forward target"
  // to hint static predictor.
  cmpq $0, _libX11_so_tramp_table+1344(%rip)
  je 2f
1:
  jmp *_libX11_so_tramp_table+1344(%rip)
2:
  pushq $168
  .cfi_adjust_cfa_offset 8
  call _libX11_so_save_regs_and_resolve
  addq $8, %rsp
  .cfi_adjust_cfa_offset -8
  jmp 1b
  .cfi_endproc

/*
 * Copyright 2018-2021 Yury Gribov
 *
 * The MIT License (MIT)
 *
 * Use of this source code is governed by MIT license that can be
 * found in the LICENSE.txt file.
 */

  .globl XForceScreenSaver
  .p2align 4
  .type XForceScreenSaver, %function
#ifdef IMPLIB_HIDDEN_SHIMS
  .hidden XForceScreenSaver
#endif
XForceScreenSaver:
  .cfi_startproc
  // Intel opt. manual says to
  // "make the fall-through code following a conditional branch be the likely target for a branch with a forward target"
  // to hint static predictor.
  cmpq $0, _libX11_so_tramp_table+1352(%rip)
  je 2f
1:
  jmp *_libX11_so_tramp_table+1352(%rip)
2:
  pushq $169
  .cfi_adjust_cfa_offset 8
  call _libX11_so_save_regs_and_resolve
  addq $8, %rsp
  .cfi_adjust_cfa_offset -8
  jmp 1b
  .cfi_endproc

/*
 * Copyright 2018-2021 Yury Gribov
 *
 * The MIT License (MIT)
 *
 * Use of this source code is governed by MIT license that can be
 * found in the LICENSE.txt file.
 */

  .globl XFree
  .p2align 4
  .type XFree, %function
#ifdef IMPLIB_HIDDEN_SHIMS
  .hidden XFree
#endif
XFree:
  .cfi_startproc
  // Intel opt. manual says to
  // "make the fall-through code following a conditional branch be the likely target for a branch with a forward target"
  // to hint static predictor.
  cmpq $0, _libX11_so_tramp_table+1360(%rip)
  je 2f
1:
  jmp *_libX11_so_tramp_table+1360(%rip)
2:
  pushq $170
  .cfi_adjust_cfa_offset 8
  call _libX11_so_save_regs_and_resolve
  addq $8, %rsp
  .cfi_adjust_cfa_offset -8
  jmp 1b
  .cfi_endproc

/*
 * Copyright 2018-2021 Yury Gribov
 *
 * The MIT License (MIT)
 *
 * Use of this source code is governed by MIT license that can be
 * found in the LICENSE.txt file.
 */

  .globl XFreeColormap
  .p2align 4
  .type XFreeColormap, %function
#ifdef IMPLIB_HIDDEN_SHIMS
  .hidden XFreeColormap
#endif
XFreeColormap:
  .cfi_startproc
  // Intel opt. manual says to
  // "make the fall-through code following a conditional branch be the likely target for a branch with a forward target"
  // to hint static predictor.
  cmpq $0, _libX11_so_tramp_table+1368(%rip)
  je 2f
1:
  jmp *_libX11_so_tramp_table+1368(%rip)
2:
  pushq $171
  .cfi_adjust_cfa_offset 8
  call _libX11_so_save_regs_and_resolve
  addq $8, %rsp
  .cfi_adjust_cfa_offset -8
  jmp 1b
  .cfi_endproc

/*
 * Copyright 2018-2021 Yury Gribov
 *
 * The MIT License (MIT)
 *
 * Use of this source code is governed by MIT license that can be
 * found in the LICENSE.txt file.
 */

  .globl XFreeColors
  .p2align 4
  .type XFreeColors, %function
#ifdef IMPLIB_HIDDEN_SHIMS
  .hidden XFreeColors
#endif
XFreeColors:
  .cfi_startproc
  // Intel opt. manual says to
  // "make the fall-through code following a conditional branch be the likely target for a branch with a forward target"
  // to hint static predictor.
  cmpq $0, _libX11_so_tramp_table+1376(%rip)
  je 2f
1:
  jmp *_libX11_so_tramp_table+1376(%rip)
2:
  pushq $172
  .cfi_adjust_cfa_offset 8
  call _libX11_so_save_regs_and_resolve
  addq $8, %rsp
  .cfi_adjust_cfa_offset -8
  jmp 1b
  .cfi_endproc

/*
 * Copyright 2018-2021 Yury Gribov
 *
 * The MIT License (MIT)
 *
 * Use of this source code is governed by MIT license that can be
 * found in the LICENSE.txt file.
 */

  .globl XFreeCursor
  .p2align 4
  .type XFreeCursor, %function
#ifdef IMPLIB_HIDDEN_SHIMS
  .hidden XFreeCursor
#endif
XFreeCursor:
  .cfi_startproc
  // Intel opt. manual says to
  // "make the fall-through code following a conditional branch be the likely target for a branch with a forward target"
  // to hint static predictor.
  cmpq $0, _libX11_so_tramp_table+1384(%rip)
  je 2f
1:
  jmp *_libX11_so_tramp_table+1384(%rip)
2:
  pushq $173
  .cfi_adjust_cfa_offset 8
  call _libX11_so_save_regs_and_resolve
  addq $8, %rsp
  .cfi_adjust_cfa_offset -8
  jmp 1b
  .cfi_endproc

/*
 * Copyright 2018-2021 Yury Gribov
 *
 * The MIT License (MIT)
 *
 * Use of this source code is governed by MIT license that can be
 * found in the LICENSE.txt file.
 */

  .globl XFreeEventData
  .p2align 4
  .type XFreeEventData, %function
#ifdef IMPLIB_HIDDEN_SHIMS
  .hidden XFreeEventData
#endif
XFreeEventData:
  .cfi_startproc
  // Intel opt. manual says to
  // "make the fall-through code following a conditional branch be the likely target for a branch with a forward target"
  // to hint static predictor.
  cmpq $0, _libX11_so_tramp_table+1392(%rip)
  je 2f
1:
  jmp *_libX11_so_tramp_table+1392(%rip)
2:
  pushq $174
  .cfi_adjust_cfa_offset 8
  call _libX11_so_save_regs_and_resolve
  addq $8, %rsp
  .cfi_adjust_cfa_offset -8
  jmp 1b
  .cfi_endproc

/*
 * Copyright 2018-2021 Yury Gribov
 *
 * The MIT License (MIT)
 *
 * Use of this source code is governed by MIT license that can be
 * found in the LICENSE.txt file.
 */

  .globl XFreeExtensionList
  .p2align 4
  .type XFreeExtensionList, %function
#ifdef IMPLIB_HIDDEN_SHIMS
  .hidden XFreeExtensionList
#endif
XFreeExtensionList:
  .cfi_startproc
  // Intel opt. manual says to
  // "make the fall-through code following a conditional branch be the likely target for a branch with a forward target"
  // to hint static predictor.
  cmpq $0, _libX11_so_tramp_table+1400(%rip)
  je 2f
1:
  jmp *_libX11_so_tramp_table+1400(%rip)
2:
  pushq $175
  .cfi_adjust_cfa_offset 8
  call _libX11_so_save_regs_and_resolve
  addq $8, %rsp
  .cfi_adjust_cfa_offset -8
  jmp 1b
  .cfi_endproc

/*
 * Copyright 2018-2021 Yury Gribov
 *
 * The MIT License (MIT)
 *
 * Use of this source code is governed by MIT license that can be
 * found in the LICENSE.txt file.
 */

  .globl XFreeFont
  .p2align 4
  .type XFreeFont, %function
#ifdef IMPLIB_HIDDEN_SHIMS
  .hidden XFreeFont
#endif
XFreeFont:
  .cfi_startproc
  // Intel opt. manual says to
  // "make the fall-through code following a conditional branch be the likely target for a branch with a forward target"
  // to hint static predictor.
  cmpq $0, _libX11_so_tramp_table+1408(%rip)
  je 2f
1:
  jmp *_libX11_so_tramp_table+1408(%rip)
2:
  pushq $176
  .cfi_adjust_cfa_offset 8
  call _libX11_so_save_regs_and_resolve
  addq $8, %rsp
  .cfi_adjust_cfa_offset -8
  jmp 1b
  .cfi_endproc

/*
 * Copyright 2018-2021 Yury Gribov
 *
 * The MIT License (MIT)
 *
 * Use of this source code is governed by MIT license that can be
 * found in the LICENSE.txt file.
 */

  .globl XFreeFontInfo
  .p2align 4
  .type XFreeFontInfo, %function
#ifdef IMPLIB_HIDDEN_SHIMS
  .hidden XFreeFontInfo
#endif
XFreeFontInfo:
  .cfi_startproc
  // Intel opt. manual says to
  // "make the fall-through code following a conditional branch be the likely target for a branch with a forward target"
  // to hint static predictor.
  cmpq $0, _libX11_so_tramp_table+1416(%rip)
  je 2f
1:
  jmp *_libX11_so_tramp_table+1416(%rip)
2:
  pushq $177
  .cfi_adjust_cfa_offset 8
  call _libX11_so_save_regs_and_resolve
  addq $8, %rsp
  .cfi_adjust_cfa_offset -8
  jmp 1b
  .cfi_endproc

/*
 * Copyright 2018-2021 Yury Gribov
 *
 * The MIT License (MIT)
 *
 * Use of this source code is governed by MIT license that can be
 * found in the LICENSE.txt file.
 */

  .globl XFreeFontNames
  .p2align 4
  .type XFreeFontNames, %function
#ifdef IMPLIB_HIDDEN_SHIMS
  .hidden XFreeFontNames
#endif
XFreeFontNames:
  .cfi_startproc
  // Intel opt. manual says to
  // "make the fall-through code following a conditional branch be the likely target for a branch with a forward target"
  // to hint static predictor.
  cmpq $0, _libX11_so_tramp_table+1424(%rip)
  je 2f
1:
  jmp *_libX11_so_tramp_table+1424(%rip)
2:
  pushq $178
  .cfi_adjust_cfa_offset 8
  call _libX11_so_save_regs_and_resolve
  addq $8, %rsp
  .cfi_adjust_cfa_offset -8
  jmp 1b
  .cfi_endproc

/*
 * Copyright 2018-2021 Yury Gribov
 *
 * The MIT License (MIT)
 *
 * Use of this source code is governed by MIT license that can be
 * found in the LICENSE.txt file.
 */

  .globl XFreeFontPath
  .p2align 4
  .type XFreeFontPath, %function
#ifdef IMPLIB_HIDDEN_SHIMS
  .hidden XFreeFontPath
#endif
XFreeFontPath:
  .cfi_startproc
  // Intel opt. manual says to
  // "make the fall-through code following a conditional branch be the likely target for a branch with a forward target"
  // to hint static predictor.
  cmpq $0, _libX11_so_tramp_table+1432(%rip)
  je 2f
1:
  jmp *_libX11_so_tramp_table+1432(%rip)
2:
  pushq $179
  .cfi_adjust_cfa_offset 8
  call _libX11_so_save_regs_and_resolve
  addq $8, %rsp
  .cfi_adjust_cfa_offset -8
  jmp 1b
  .cfi_endproc

/*
 * Copyright 2018-2021 Yury Gribov
 *
 * The MIT License (MIT)
 *
 * Use of this source code is governed by MIT license that can be
 * found in the LICENSE.txt file.
 */

  .globl XFreeFontSet
  .p2align 4
  .type XFreeFontSet, %function
#ifdef IMPLIB_HIDDEN_SHIMS
  .hidden XFreeFontSet
#endif
XFreeFontSet:
  .cfi_startproc
  // Intel opt. manual says to
  // "make the fall-through code following a conditional branch be the likely target for a branch with a forward target"
  // to hint static predictor.
  cmpq $0, _libX11_so_tramp_table+1440(%rip)
  je 2f
1:
  jmp *_libX11_so_tramp_table+1440(%rip)
2:
  pushq $180
  .cfi_adjust_cfa_offset 8
  call _libX11_so_save_regs_and_resolve
  addq $8, %rsp
  .cfi_adjust_cfa_offset -8
  jmp 1b
  .cfi_endproc

/*
 * Copyright 2018-2021 Yury Gribov
 *
 * The MIT License (MIT)
 *
 * Use of this source code is governed by MIT license that can be
 * found in the LICENSE.txt file.
 */

  .globl XFreeGC
  .p2align 4
  .type XFreeGC, %function
#ifdef IMPLIB_HIDDEN_SHIMS
  .hidden XFreeGC
#endif
XFreeGC:
  .cfi_startproc
  // Intel opt. manual says to
  // "make the fall-through code following a conditional branch be the likely target for a branch with a forward target"
  // to hint static predictor.
  cmpq $0, _libX11_so_tramp_table+1448(%rip)
  je 2f
1:
  jmp *_libX11_so_tramp_table+1448(%rip)
2:
  pushq $181
  .cfi_adjust_cfa_offset 8
  call _libX11_so_save_regs_and_resolve
  addq $8, %rsp
  .cfi_adjust_cfa_offset -8
  jmp 1b
  .cfi_endproc

/*
 * Copyright 2018-2021 Yury Gribov
 *
 * The MIT License (MIT)
 *
 * Use of this source code is governed by MIT license that can be
 * found in the LICENSE.txt file.
 */

  .globl XFreeModifiermap
  .p2align 4
  .type XFreeModifiermap, %function
#ifdef IMPLIB_HIDDEN_SHIMS
  .hidden XFreeModifiermap
#endif
XFreeModifiermap:
  .cfi_startproc
  // Intel opt. manual says to
  // "make the fall-through code following a conditional branch be the likely target for a branch with a forward target"
  // to hint static predictor.
  cmpq $0, _libX11_so_tramp_table+1456(%rip)
  je 2f
1:
  jmp *_libX11_so_tramp_table+1456(%rip)
2:
  pushq $182
  .cfi_adjust_cfa_offset 8
  call _libX11_so_save_regs_and_resolve
  addq $8, %rsp
  .cfi_adjust_cfa_offset -8
  jmp 1b
  .cfi_endproc

/*
 * Copyright 2018-2021 Yury Gribov
 *
 * The MIT License (MIT)
 *
 * Use of this source code is governed by MIT license that can be
 * found in the LICENSE.txt file.
 */

  .globl XFreePixmap
  .p2align 4
  .type XFreePixmap, %function
#ifdef IMPLIB_HIDDEN_SHIMS
  .hidden XFreePixmap
#endif
XFreePixmap:
  .cfi_startproc
  // Intel opt. manual says to
  // "make the fall-through code following a conditional branch be the likely target for a branch with a forward target"
  // to hint static predictor.
  cmpq $0, _libX11_so_tramp_table+1464(%rip)
  je 2f
1:
  jmp *_libX11_so_tramp_table+1464(%rip)
2:
  pushq $183
  .cfi_adjust_cfa_offset 8
  call _libX11_so_save_regs_and_resolve
  addq $8, %rsp
  .cfi_adjust_cfa_offset -8
  jmp 1b
  .cfi_endproc

/*
 * Copyright 2018-2021 Yury Gribov
 *
 * The MIT License (MIT)
 *
 * Use of this source code is governed by MIT license that can be
 * found in the LICENSE.txt file.
 */

  .globl XFreeStringList
  .p2align 4
  .type XFreeStringList, %function
#ifdef IMPLIB_HIDDEN_SHIMS
  .hidden XFreeStringList
#endif
XFreeStringList:
  .cfi_startproc
  // Intel opt. manual says to
  // "make the fall-through code following a conditional branch be the likely target for a branch with a forward target"
  // to hint static predictor.
  cmpq $0, _libX11_so_tramp_table+1472(%rip)
  je 2f
1:
  jmp *_libX11_so_tramp_table+1472(%rip)
2:
  pushq $184
  .cfi_adjust_cfa_offset 8
  call _libX11_so_save_regs_and_resolve
  addq $8, %rsp
  .cfi_adjust_cfa_offset -8
  jmp 1b
  .cfi_endproc

/*
 * Copyright 2018-2021 Yury Gribov
 *
 * The MIT License (MIT)
 *
 * Use of this source code is governed by MIT license that can be
 * found in the LICENSE.txt file.
 */

  .globl XGContextFromGC
  .p2align 4
  .type XGContextFromGC, %function
#ifdef IMPLIB_HIDDEN_SHIMS
  .hidden XGContextFromGC
#endif
XGContextFromGC:
  .cfi_startproc
  // Intel opt. manual says to
  // "make the fall-through code following a conditional branch be the likely target for a branch with a forward target"
  // to hint static predictor.
  cmpq $0, _libX11_so_tramp_table+1480(%rip)
  je 2f
1:
  jmp *_libX11_so_tramp_table+1480(%rip)
2:
  pushq $185
  .cfi_adjust_cfa_offset 8
  call _libX11_so_save_regs_and_resolve
  addq $8, %rsp
  .cfi_adjust_cfa_offset -8
  jmp 1b
  .cfi_endproc

/*
 * Copyright 2018-2021 Yury Gribov
 *
 * The MIT License (MIT)
 *
 * Use of this source code is governed by MIT license that can be
 * found in the LICENSE.txt file.
 */

  .globl XGeometry
  .p2align 4
  .type XGeometry, %function
#ifdef IMPLIB_HIDDEN_SHIMS
  .hidden XGeometry
#endif
XGeometry:
  .cfi_startproc
  // Intel opt. manual says to
  // "make the fall-through code following a conditional branch be the likely target for a branch with a forward target"
  // to hint static predictor.
  cmpq $0, _libX11_so_tramp_table+1488(%rip)
  je 2f
1:
  jmp *_libX11_so_tramp_table+1488(%rip)
2:
  pushq $186
  .cfi_adjust_cfa_offset 8
  call _libX11_so_save_regs_and_resolve
  addq $8, %rsp
  .cfi_adjust_cfa_offset -8
  jmp 1b
  .cfi_endproc

/*
 * Copyright 2018-2021 Yury Gribov
 *
 * The MIT License (MIT)
 *
 * Use of this source code is governed by MIT license that can be
 * found in the LICENSE.txt file.
 */

  .globl XGetAtomName
  .p2align 4
  .type XGetAtomName, %function
#ifdef IMPLIB_HIDDEN_SHIMS
  .hidden XGetAtomName
#endif
XGetAtomName:
  .cfi_startproc
  // Intel opt. manual says to
  // "make the fall-through code following a conditional branch be the likely target for a branch with a forward target"
  // to hint static predictor.
  cmpq $0, _libX11_so_tramp_table+1496(%rip)
  je 2f
1:
  jmp *_libX11_so_tramp_table+1496(%rip)
2:
  pushq $187
  .cfi_adjust_cfa_offset 8
  call _libX11_so_save_regs_and_resolve
  addq $8, %rsp
  .cfi_adjust_cfa_offset -8
  jmp 1b
  .cfi_endproc

/*
 * Copyright 2018-2021 Yury Gribov
 *
 * The MIT License (MIT)
 *
 * Use of this source code is governed by MIT license that can be
 * found in the LICENSE.txt file.
 */

  .globl XGetAtomNames
  .p2align 4
  .type XGetAtomNames, %function
#ifdef IMPLIB_HIDDEN_SHIMS
  .hidden XGetAtomNames
#endif
XGetAtomNames:
  .cfi_startproc
  // Intel opt. manual says to
  // "make the fall-through code following a conditional branch be the likely target for a branch with a forward target"
  // to hint static predictor.
  cmpq $0, _libX11_so_tramp_table+1504(%rip)
  je 2f
1:
  jmp *_libX11_so_tramp_table+1504(%rip)
2:
  pushq $188
  .cfi_adjust_cfa_offset 8
  call _libX11_so_save_regs_and_resolve
  addq $8, %rsp
  .cfi_adjust_cfa_offset -8
  jmp 1b
  .cfi_endproc

/*
 * Copyright 2018-2021 Yury Gribov
 *
 * The MIT License (MIT)
 *
 * Use of this source code is governed by MIT license that can be
 * found in the LICENSE.txt file.
 */

  .globl XGetClassHint
  .p2align 4
  .type XGetClassHint, %function
#ifdef IMPLIB_HIDDEN_SHIMS
  .hidden XGetClassHint
#endif
XGetClassHint:
  .cfi_startproc
  // Intel opt. manual says to
  // "make the fall-through code following a conditional branch be the likely target for a branch with a forward target"
  // to hint static predictor.
  cmpq $0, _libX11_so_tramp_table+1512(%rip)
  je 2f
1:
  jmp *_libX11_so_tramp_table+1512(%rip)
2:
  pushq $189
  .cfi_adjust_cfa_offset 8
  call _libX11_so_save_regs_and_resolve
  addq $8, %rsp
  .cfi_adjust_cfa_offset -8
  jmp 1b
  .cfi_endproc

/*
 * Copyright 2018-2021 Yury Gribov
 *
 * The MIT License (MIT)
 *
 * Use of this source code is governed by MIT license that can be
 * found in the LICENSE.txt file.
 */

  .globl XGetCommand
  .p2align 4
  .type XGetCommand, %function
#ifdef IMPLIB_HIDDEN_SHIMS
  .hidden XGetCommand
#endif
XGetCommand:
  .cfi_startproc
  // Intel opt. manual says to
  // "make the fall-through code following a conditional branch be the likely target for a branch with a forward target"
  // to hint static predictor.
  cmpq $0, _libX11_so_tramp_table+1520(%rip)
  je 2f
1:
  jmp *_libX11_so_tramp_table+1520(%rip)
2:
  pushq $190
  .cfi_adjust_cfa_offset 8
  call _libX11_so_save_regs_and_resolve
  addq $8, %rsp
  .cfi_adjust_cfa_offset -8
  jmp 1b
  .cfi_endproc

/*
 * Copyright 2018-2021 Yury Gribov
 *
 * The MIT License (MIT)
 *
 * Use of this source code is governed by MIT license that can be
 * found in the LICENSE.txt file.
 */

  .globl XGetDefault
  .p2align 4
  .type XGetDefault, %function
#ifdef IMPLIB_HIDDEN_SHIMS
  .hidden XGetDefault
#endif
XGetDefault:
  .cfi_startproc
  // Intel opt. manual says to
  // "make the fall-through code following a conditional branch be the likely target for a branch with a forward target"
  // to hint static predictor.
  cmpq $0, _libX11_so_tramp_table+1528(%rip)
  je 2f
1:
  jmp *_libX11_so_tramp_table+1528(%rip)
2:
  pushq $191
  .cfi_adjust_cfa_offset 8
  call _libX11_so_save_regs_and_resolve
  addq $8, %rsp
  .cfi_adjust_cfa_offset -8
  jmp 1b
  .cfi_endproc

/*
 * Copyright 2018-2021 Yury Gribov
 *
 * The MIT License (MIT)
 *
 * Use of this source code is governed by MIT license that can be
 * found in the LICENSE.txt file.
 */

  .globl XGetErrorDatabaseText
  .p2align 4
  .type XGetErrorDatabaseText, %function
#ifdef IMPLIB_HIDDEN_SHIMS
  .hidden XGetErrorDatabaseText
#endif
XGetErrorDatabaseText:
  .cfi_startproc
  // Intel opt. manual says to
  // "make the fall-through code following a conditional branch be the likely target for a branch with a forward target"
  // to hint static predictor.
  cmpq $0, _libX11_so_tramp_table+1536(%rip)
  je 2f
1:
  jmp *_libX11_so_tramp_table+1536(%rip)
2:
  pushq $192
  .cfi_adjust_cfa_offset 8
  call _libX11_so_save_regs_and_resolve
  addq $8, %rsp
  .cfi_adjust_cfa_offset -8
  jmp 1b
  .cfi_endproc

/*
 * Copyright 2018-2021 Yury Gribov
 *
 * The MIT License (MIT)
 *
 * Use of this source code is governed by MIT license that can be
 * found in the LICENSE.txt file.
 */

  .globl XGetErrorText
  .p2align 4
  .type XGetErrorText, %function
#ifdef IMPLIB_HIDDEN_SHIMS
  .hidden XGetErrorText
#endif
XGetErrorText:
  .cfi_startproc
  // Intel opt. manual says to
  // "make the fall-through code following a conditional branch be the likely target for a branch with a forward target"
  // to hint static predictor.
  cmpq $0, _libX11_so_tramp_table+1544(%rip)
  je 2f
1:
  jmp *_libX11_so_tramp_table+1544(%rip)
2:
  pushq $193
  .cfi_adjust_cfa_offset 8
  call _libX11_so_save_regs_and_resolve
  addq $8, %rsp
  .cfi_adjust_cfa_offset -8
  jmp 1b
  .cfi_endproc

/*
 * Copyright 2018-2021 Yury Gribov
 *
 * The MIT License (MIT)
 *
 * Use of this source code is governed by MIT license that can be
 * found in the LICENSE.txt file.
 */

  .globl XGetEventData
  .p2align 4
  .type XGetEventData, %function
#ifdef IMPLIB_HIDDEN_SHIMS
  .hidden XGetEventData
#endif
XGetEventData:
  .cfi_startproc
  // Intel opt. manual says to
  // "make the fall-through code following a conditional branch be the likely target for a branch with a forward target"
  // to hint static predictor.
  cmpq $0, _libX11_so_tramp_table+1552(%rip)
  je 2f
1:
  jmp *_libX11_so_tramp_table+1552(%rip)
2:
  pushq $194
  .cfi_adjust_cfa_offset 8
  call _libX11_so_save_regs_and_resolve
  addq $8, %rsp
  .cfi_adjust_cfa_offset -8
  jmp 1b
  .cfi_endproc

/*
 * Copyright 2018-2021 Yury Gribov
 *
 * The MIT License (MIT)
 *
 * Use of this source code is governed by MIT license that can be
 * found in the LICENSE.txt file.
 */

  .globl XGetFontPath
  .p2align 4
  .type XGetFontPath, %function
#ifdef IMPLIB_HIDDEN_SHIMS
  .hidden XGetFontPath
#endif
XGetFontPath:
  .cfi_startproc
  // Intel opt. manual says to
  // "make the fall-through code following a conditional branch be the likely target for a branch with a forward target"
  // to hint static predictor.
  cmpq $0, _libX11_so_tramp_table+1560(%rip)
  je 2f
1:
  jmp *_libX11_so_tramp_table+1560(%rip)
2:
  pushq $195
  .cfi_adjust_cfa_offset 8
  call _libX11_so_save_regs_and_resolve
  addq $8, %rsp
  .cfi_adjust_cfa_offset -8
  jmp 1b
  .cfi_endproc

/*
 * Copyright 2018-2021 Yury Gribov
 *
 * The MIT License (MIT)
 *
 * Use of this source code is governed by MIT license that can be
 * found in the LICENSE.txt file.
 */

  .globl XGetFontProperty
  .p2align 4
  .type XGetFontProperty, %function
#ifdef IMPLIB_HIDDEN_SHIMS
  .hidden XGetFontProperty
#endif
XGetFontProperty:
  .cfi_startproc
  // Intel opt. manual says to
  // "make the fall-through code following a conditional branch be the likely target for a branch with a forward target"
  // to hint static predictor.
  cmpq $0, _libX11_so_tramp_table+1568(%rip)
  je 2f
1:
  jmp *_libX11_so_tramp_table+1568(%rip)
2:
  pushq $196
  .cfi_adjust_cfa_offset 8
  call _libX11_so_save_regs_and_resolve
  addq $8, %rsp
  .cfi_adjust_cfa_offset -8
  jmp 1b
  .cfi_endproc

/*
 * Copyright 2018-2021 Yury Gribov
 *
 * The MIT License (MIT)
 *
 * Use of this source code is governed by MIT license that can be
 * found in the LICENSE.txt file.
 */

  .globl XGetGCValues
  .p2align 4
  .type XGetGCValues, %function
#ifdef IMPLIB_HIDDEN_SHIMS
  .hidden XGetGCValues
#endif
XGetGCValues:
  .cfi_startproc
  // Intel opt. manual says to
  // "make the fall-through code following a conditional branch be the likely target for a branch with a forward target"
  // to hint static predictor.
  cmpq $0, _libX11_so_tramp_table+1576(%rip)
  je 2f
1:
  jmp *_libX11_so_tramp_table+1576(%rip)
2:
  pushq $197
  .cfi_adjust_cfa_offset 8
  call _libX11_so_save_regs_and_resolve
  addq $8, %rsp
  .cfi_adjust_cfa_offset -8
  jmp 1b
  .cfi_endproc

/*
 * Copyright 2018-2021 Yury Gribov
 *
 * The MIT License (MIT)
 *
 * Use of this source code is governed by MIT license that can be
 * found in the LICENSE.txt file.
 */

  .globl XGetGeometry
  .p2align 4
  .type XGetGeometry, %function
#ifdef IMPLIB_HIDDEN_SHIMS
  .hidden XGetGeometry
#endif
XGetGeometry:
  .cfi_startproc
  // Intel opt. manual says to
  // "make the fall-through code following a conditional branch be the likely target for a branch with a forward target"
  // to hint static predictor.
  cmpq $0, _libX11_so_tramp_table+1584(%rip)
  je 2f
1:
  jmp *_libX11_so_tramp_table+1584(%rip)
2:
  pushq $198
  .cfi_adjust_cfa_offset 8
  call _libX11_so_save_regs_and_resolve
  addq $8, %rsp
  .cfi_adjust_cfa_offset -8
  jmp 1b
  .cfi_endproc

/*
 * Copyright 2018-2021 Yury Gribov
 *
 * The MIT License (MIT)
 *
 * Use of this source code is governed by MIT license that can be
 * found in the LICENSE.txt file.
 */

  .globl XGetICValues
  .p2align 4
  .type XGetICValues, %function
#ifdef IMPLIB_HIDDEN_SHIMS
  .hidden XGetICValues
#endif
XGetICValues:
  .cfi_startproc
  // Intel opt. manual says to
  // "make the fall-through code following a conditional branch be the likely target for a branch with a forward target"
  // to hint static predictor.
  cmpq $0, _libX11_so_tramp_table+1592(%rip)
  je 2f
1:
  jmp *_libX11_so_tramp_table+1592(%rip)
2:
  pushq $199
  .cfi_adjust_cfa_offset 8
  call _libX11_so_save_regs_and_resolve
  addq $8, %rsp
  .cfi_adjust_cfa_offset -8
  jmp 1b
  .cfi_endproc

/*
 * Copyright 2018-2021 Yury Gribov
 *
 * The MIT License (MIT)
 *
 * Use of this source code is governed by MIT license that can be
 * found in the LICENSE.txt file.
 */

  .globl XGetIMValues
  .p2align 4
  .type XGetIMValues, %function
#ifdef IMPLIB_HIDDEN_SHIMS
  .hidden XGetIMValues
#endif
XGetIMValues:
  .cfi_startproc
  // Intel opt. manual says to
  // "make the fall-through code following a conditional branch be the likely target for a branch with a forward target"
  // to hint static predictor.
  cmpq $0, _libX11_so_tramp_table+1600(%rip)
  je 2f
1:
  jmp *_libX11_so_tramp_table+1600(%rip)
2:
  pushq $200
  .cfi_adjust_cfa_offset 8
  call _libX11_so_save_regs_and_resolve
  addq $8, %rsp
  .cfi_adjust_cfa_offset -8
  jmp 1b
  .cfi_endproc

/*
 * Copyright 2018-2021 Yury Gribov
 *
 * The MIT License (MIT)
 *
 * Use of this source code is governed by MIT license that can be
 * found in the LICENSE.txt file.
 */

  .globl XGetIconName
  .p2align 4
  .type XGetIconName, %function
#ifdef IMPLIB_HIDDEN_SHIMS
  .hidden XGetIconName
#endif
XGetIconName:
  .cfi_startproc
  // Intel opt. manual says to
  // "make the fall-through code following a conditional branch be the likely target for a branch with a forward target"
  // to hint static predictor.
  cmpq $0, _libX11_so_tramp_table+1608(%rip)
  je 2f
1:
  jmp *_libX11_so_tramp_table+1608(%rip)
2:
  pushq $201
  .cfi_adjust_cfa_offset 8
  call _libX11_so_save_regs_and_resolve
  addq $8, %rsp
  .cfi_adjust_cfa_offset -8
  jmp 1b
  .cfi_endproc

/*
 * Copyright 2018-2021 Yury Gribov
 *
 * The MIT License (MIT)
 *
 * Use of this source code is governed by MIT license that can be
 * found in the LICENSE.txt file.
 */

  .globl XGetIconSizes
  .p2align 4
  .type XGetIconSizes, %function
#ifdef IMPLIB_HIDDEN_SHIMS
  .hidden XGetIconSizes
#endif
XGetIconSizes:
  .cfi_startproc
  // Intel opt. manual says to
  // "make the fall-through code following a conditional branch be the likely target for a branch with a forward target"
  // to hint static predictor.
  cmpq $0, _libX11_so_tramp_table+1616(%rip)
  je 2f
1:
  jmp *_libX11_so_tramp_table+1616(%rip)
2:
  pushq $202
  .cfi_adjust_cfa_offset 8
  call _libX11_so_save_regs_and_resolve
  addq $8, %rsp
  .cfi_adjust_cfa_offset -8
  jmp 1b
  .cfi_endproc

/*
 * Copyright 2018-2021 Yury Gribov
 *
 * The MIT License (MIT)
 *
 * Use of this source code is governed by MIT license that can be
 * found in the LICENSE.txt file.
 */

  .globl XGetImage
  .p2align 4
  .type XGetImage, %function
#ifdef IMPLIB_HIDDEN_SHIMS
  .hidden XGetImage
#endif
XGetImage:
  .cfi_startproc
  // Intel opt. manual says to
  // "make the fall-through code following a conditional branch be the likely target for a branch with a forward target"
  // to hint static predictor.
  cmpq $0, _libX11_so_tramp_table+1624(%rip)
  je 2f
1:
  jmp *_libX11_so_tramp_table+1624(%rip)
2:
  pushq $203
  .cfi_adjust_cfa_offset 8
  call _libX11_so_save_regs_and_resolve
  addq $8, %rsp
  .cfi_adjust_cfa_offset -8
  jmp 1b
  .cfi_endproc

/*
 * Copyright 2018-2021 Yury Gribov
 *
 * The MIT License (MIT)
 *
 * Use of this source code is governed by MIT license that can be
 * found in the LICENSE.txt file.
 */

  .globl XGetInputFocus
  .p2align 4
  .type XGetInputFocus, %function
#ifdef IMPLIB_HIDDEN_SHIMS
  .hidden XGetInputFocus
#endif
XGetInputFocus:
  .cfi_startproc
  // Intel opt. manual says to
  // "make the fall-through code following a conditional branch be the likely target for a branch with a forward target"
  // to hint static predictor.
  cmpq $0, _libX11_so_tramp_table+1632(%rip)
  je 2f
1:
  jmp *_libX11_so_tramp_table+1632(%rip)
2:
  pushq $204
  .cfi_adjust_cfa_offset 8
  call _libX11_so_save_regs_and_resolve
  addq $8, %rsp
  .cfi_adjust_cfa_offset -8
  jmp 1b
  .cfi_endproc

/*
 * Copyright 2018-2021 Yury Gribov
 *
 * The MIT License (MIT)
 *
 * Use of this source code is governed by MIT license that can be
 * found in the LICENSE.txt file.
 */

  .globl XGetKeyboardControl
  .p2align 4
  .type XGetKeyboardControl, %function
#ifdef IMPLIB_HIDDEN_SHIMS
  .hidden XGetKeyboardControl
#endif
XGetKeyboardControl:
  .cfi_startproc
  // Intel opt. manual says to
  // "make the fall-through code following a conditional branch be the likely target for a branch with a forward target"
  // to hint static predictor.
  cmpq $0, _libX11_so_tramp_table+1640(%rip)
  je 2f
1:
  jmp *_libX11_so_tramp_table+1640(%rip)
2:
  pushq $205
  .cfi_adjust_cfa_offset 8
  call _libX11_so_save_regs_and_resolve
  addq $8, %rsp
  .cfi_adjust_cfa_offset -8
  jmp 1b
  .cfi_endproc

/*
 * Copyright 2018-2021 Yury Gribov
 *
 * The MIT License (MIT)
 *
 * Use of this source code is governed by MIT license that can be
 * found in the LICENSE.txt file.
 */

  .globl XGetKeyboardMapping
  .p2align 4
  .type XGetKeyboardMapping, %function
#ifdef IMPLIB_HIDDEN_SHIMS
  .hidden XGetKeyboardMapping
#endif
XGetKeyboardMapping:
  .cfi_startproc
  // Intel opt. manual says to
  // "make the fall-through code following a conditional branch be the likely target for a branch with a forward target"
  // to hint static predictor.
  cmpq $0, _libX11_so_tramp_table+1648(%rip)
  je 2f
1:
  jmp *_libX11_so_tramp_table+1648(%rip)
2:
  pushq $206
  .cfi_adjust_cfa_offset 8
  call _libX11_so_save_regs_and_resolve
  addq $8, %rsp
  .cfi_adjust_cfa_offset -8
  jmp 1b
  .cfi_endproc

/*
 * Copyright 2018-2021 Yury Gribov
 *
 * The MIT License (MIT)
 *
 * Use of this source code is governed by MIT license that can be
 * found in the LICENSE.txt file.
 */

  .globl XGetModifierMapping
  .p2align 4
  .type XGetModifierMapping, %function
#ifdef IMPLIB_HIDDEN_SHIMS
  .hidden XGetModifierMapping
#endif
XGetModifierMapping:
  .cfi_startproc
  // Intel opt. manual says to
  // "make the fall-through code following a conditional branch be the likely target for a branch with a forward target"
  // to hint static predictor.
  cmpq $0, _libX11_so_tramp_table+1656(%rip)
  je 2f
1:
  jmp *_libX11_so_tramp_table+1656(%rip)
2:
  pushq $207
  .cfi_adjust_cfa_offset 8
  call _libX11_so_save_regs_and_resolve
  addq $8, %rsp
  .cfi_adjust_cfa_offset -8
  jmp 1b
  .cfi_endproc

/*
 * Copyright 2018-2021 Yury Gribov
 *
 * The MIT License (MIT)
 *
 * Use of this source code is governed by MIT license that can be
 * found in the LICENSE.txt file.
 */

  .globl XGetMotionEvents
  .p2align 4
  .type XGetMotionEvents, %function
#ifdef IMPLIB_HIDDEN_SHIMS
  .hidden XGetMotionEvents
#endif
XGetMotionEvents:
  .cfi_startproc
  // Intel opt. manual says to
  // "make the fall-through code following a conditional branch be the likely target for a branch with a forward target"
  // to hint static predictor.
  cmpq $0, _libX11_so_tramp_table+1664(%rip)
  je 2f
1:
  jmp *_libX11_so_tramp_table+1664(%rip)
2:
  pushq $208
  .cfi_adjust_cfa_offset 8
  call _libX11_so_save_regs_and_resolve
  addq $8, %rsp
  .cfi_adjust_cfa_offset -8
  jmp 1b
  .cfi_endproc

/*
 * Copyright 2018-2021 Yury Gribov
 *
 * The MIT License (MIT)
 *
 * Use of this source code is governed by MIT license that can be
 * found in the LICENSE.txt file.
 */

  .globl XGetNormalHints
  .p2align 4
  .type XGetNormalHints, %function
#ifdef IMPLIB_HIDDEN_SHIMS
  .hidden XGetNormalHints
#endif
XGetNormalHints:
  .cfi_startproc
  // Intel opt. manual says to
  // "make the fall-through code following a conditional branch be the likely target for a branch with a forward target"
  // to hint static predictor.
  cmpq $0, _libX11_so_tramp_table+1672(%rip)
  je 2f
1:
  jmp *_libX11_so_tramp_table+1672(%rip)
2:
  pushq $209
  .cfi_adjust_cfa_offset 8
  call _libX11_so_save_regs_and_resolve
  addq $8, %rsp
  .cfi_adjust_cfa_offset -8
  jmp 1b
  .cfi_endproc

/*
 * Copyright 2018-2021 Yury Gribov
 *
 * The MIT License (MIT)
 *
 * Use of this source code is governed by MIT license that can be
 * found in the LICENSE.txt file.
 */

  .globl XGetOCValues
  .p2align 4
  .type XGetOCValues, %function
#ifdef IMPLIB_HIDDEN_SHIMS
  .hidden XGetOCValues
#endif
XGetOCValues:
  .cfi_startproc
  // Intel opt. manual says to
  // "make the fall-through code following a conditional branch be the likely target for a branch with a forward target"
  // to hint static predictor.
  cmpq $0, _libX11_so_tramp_table+1680(%rip)
  je 2f
1:
  jmp *_libX11_so_tramp_table+1680(%rip)
2:
  pushq $210
  .cfi_adjust_cfa_offset 8
  call _libX11_so_save_regs_and_resolve
  addq $8, %rsp
  .cfi_adjust_cfa_offset -8
  jmp 1b
  .cfi_endproc

/*
 * Copyright 2018-2021 Yury Gribov
 *
 * The MIT License (MIT)
 *
 * Use of this source code is governed by MIT license that can be
 * found in the LICENSE.txt file.
 */

  .globl XGetOMValues
  .p2align 4
  .type XGetOMValues, %function
#ifdef IMPLIB_HIDDEN_SHIMS
  .hidden XGetOMValues
#endif
XGetOMValues:
  .cfi_startproc
  // Intel opt. manual says to
  // "make the fall-through code following a conditional branch be the likely target for a branch with a forward target"
  // to hint static predictor.
  cmpq $0, _libX11_so_tramp_table+1688(%rip)
  je 2f
1:
  jmp *_libX11_so_tramp_table+1688(%rip)
2:
  pushq $211
  .cfi_adjust_cfa_offset 8
  call _libX11_so_save_regs_and_resolve
  addq $8, %rsp
  .cfi_adjust_cfa_offset -8
  jmp 1b
  .cfi_endproc

/*
 * Copyright 2018-2021 Yury Gribov
 *
 * The MIT License (MIT)
 *
 * Use of this source code is governed by MIT license that can be
 * found in the LICENSE.txt file.
 */

  .globl XGetPixel
  .p2align 4
  .type XGetPixel, %function
#ifdef IMPLIB_HIDDEN_SHIMS
  .hidden XGetPixel
#endif
XGetPixel:
  .cfi_startproc
  // Intel opt. manual says to
  // "make the fall-through code following a conditional branch be the likely target for a branch with a forward target"
  // to hint static predictor.
  cmpq $0, _libX11_so_tramp_table+1696(%rip)
  je 2f
1:
  jmp *_libX11_so_tramp_table+1696(%rip)
2:
  pushq $212
  .cfi_adjust_cfa_offset 8
  call _libX11_so_save_regs_and_resolve
  addq $8, %rsp
  .cfi_adjust_cfa_offset -8
  jmp 1b
  .cfi_endproc

/*
 * Copyright 2018-2021 Yury Gribov
 *
 * The MIT License (MIT)
 *
 * Use of this source code is governed by MIT license that can be
 * found in the LICENSE.txt file.
 */

  .globl XGetPointerControl
  .p2align 4
  .type XGetPointerControl, %function
#ifdef IMPLIB_HIDDEN_SHIMS
  .hidden XGetPointerControl
#endif
XGetPointerControl:
  .cfi_startproc
  // Intel opt. manual says to
  // "make the fall-through code following a conditional branch be the likely target for a branch with a forward target"
  // to hint static predictor.
  cmpq $0, _libX11_so_tramp_table+1704(%rip)
  je 2f
1:
  jmp *_libX11_so_tramp_table+1704(%rip)
2:
  pushq $213
  .cfi_adjust_cfa_offset 8
  call _libX11_so_save_regs_and_resolve
  addq $8, %rsp
  .cfi_adjust_cfa_offset -8
  jmp 1b
  .cfi_endproc

/*
 * Copyright 2018-2021 Yury Gribov
 *
 * The MIT License (MIT)
 *
 * Use of this source code is governed by MIT license that can be
 * found in the LICENSE.txt file.
 */

  .globl XGetPointerMapping
  .p2align 4
  .type XGetPointerMapping, %function
#ifdef IMPLIB_HIDDEN_SHIMS
  .hidden XGetPointerMapping
#endif
XGetPointerMapping:
  .cfi_startproc
  // Intel opt. manual says to
  // "make the fall-through code following a conditional branch be the likely target for a branch with a forward target"
  // to hint static predictor.
  cmpq $0, _libX11_so_tramp_table+1712(%rip)
  je 2f
1:
  jmp *_libX11_so_tramp_table+1712(%rip)
2:
  pushq $214
  .cfi_adjust_cfa_offset 8
  call _libX11_so_save_regs_and_resolve
  addq $8, %rsp
  .cfi_adjust_cfa_offset -8
  jmp 1b
  .cfi_endproc

/*
 * Copyright 2018-2021 Yury Gribov
 *
 * The MIT License (MIT)
 *
 * Use of this source code is governed by MIT license that can be
 * found in the LICENSE.txt file.
 */

  .globl XGetRGBColormaps
  .p2align 4
  .type XGetRGBColormaps, %function
#ifdef IMPLIB_HIDDEN_SHIMS
  .hidden XGetRGBColormaps
#endif
XGetRGBColormaps:
  .cfi_startproc
  // Intel opt. manual says to
  // "make the fall-through code following a conditional branch be the likely target for a branch with a forward target"
  // to hint static predictor.
  cmpq $0, _libX11_so_tramp_table+1720(%rip)
  je 2f
1:
  jmp *_libX11_so_tramp_table+1720(%rip)
2:
  pushq $215
  .cfi_adjust_cfa_offset 8
  call _libX11_so_save_regs_and_resolve
  addq $8, %rsp
  .cfi_adjust_cfa_offset -8
  jmp 1b
  .cfi_endproc

/*
 * Copyright 2018-2021 Yury Gribov
 *
 * The MIT License (MIT)
 *
 * Use of this source code is governed by MIT license that can be
 * found in the LICENSE.txt file.
 */

  .globl XGetScreenSaver
  .p2align 4
  .type XGetScreenSaver, %function
#ifdef IMPLIB_HIDDEN_SHIMS
  .hidden XGetScreenSaver
#endif
XGetScreenSaver:
  .cfi_startproc
  // Intel opt. manual says to
  // "make the fall-through code following a conditional branch be the likely target for a branch with a forward target"
  // to hint static predictor.
  cmpq $0, _libX11_so_tramp_table+1728(%rip)
  je 2f
1:
  jmp *_libX11_so_tramp_table+1728(%rip)
2:
  pushq $216
  .cfi_adjust_cfa_offset 8
  call _libX11_so_save_regs_and_resolve
  addq $8, %rsp
  .cfi_adjust_cfa_offset -8
  jmp 1b
  .cfi_endproc

/*
 * Copyright 2018-2021 Yury Gribov
 *
 * The MIT License (MIT)
 *
 * Use of this source code is governed by MIT license that can be
 * found in the LICENSE.txt file.
 */

  .globl XGetSelectionOwner
  .p2align 4
  .type XGetSelectionOwner, %function
#ifdef IMPLIB_HIDDEN_SHIMS
  .hidden XGetSelectionOwner
#endif
XGetSelectionOwner:
  .cfi_startproc
  // Intel opt. manual says to
  // "make the fall-through code following a conditional branch be the likely target for a branch with a forward target"
  // to hint static predictor.
  cmpq $0, _libX11_so_tramp_table+1736(%rip)
  je 2f
1:
  jmp *_libX11_so_tramp_table+1736(%rip)
2:
  pushq $217
  .cfi_adjust_cfa_offset 8
  call _libX11_so_save_regs_and_resolve
  addq $8, %rsp
  .cfi_adjust_cfa_offset -8
  jmp 1b
  .cfi_endproc

/*
 * Copyright 2018-2021 Yury Gribov
 *
 * The MIT License (MIT)
 *
 * Use of this source code is governed by MIT license that can be
 * found in the LICENSE.txt file.
 */

  .globl XGetSizeHints
  .p2align 4
  .type XGetSizeHints, %function
#ifdef IMPLIB_HIDDEN_SHIMS
  .hidden XGetSizeHints
#endif
XGetSizeHints:
  .cfi_startproc
  // Intel opt. manual says to
  // "make the fall-through code following a conditional branch be the likely target for a branch with a forward target"
  // to hint static predictor.
  cmpq $0, _libX11_so_tramp_table+1744(%rip)
  je 2f
1:
  jmp *_libX11_so_tramp_table+1744(%rip)
2:
  pushq $218
  .cfi_adjust_cfa_offset 8
  call _libX11_so_save_regs_and_resolve
  addq $8, %rsp
  .cfi_adjust_cfa_offset -8
  jmp 1b
  .cfi_endproc

/*
 * Copyright 2018-2021 Yury Gribov
 *
 * The MIT License (MIT)
 *
 * Use of this source code is governed by MIT license that can be
 * found in the LICENSE.txt file.
 */

  .globl XGetStandardColormap
  .p2align 4
  .type XGetStandardColormap, %function
#ifdef IMPLIB_HIDDEN_SHIMS
  .hidden XGetStandardColormap
#endif
XGetStandardColormap:
  .cfi_startproc
  // Intel opt. manual says to
  // "make the fall-through code following a conditional branch be the likely target for a branch with a forward target"
  // to hint static predictor.
  cmpq $0, _libX11_so_tramp_table+1752(%rip)
  je 2f
1:
  jmp *_libX11_so_tramp_table+1752(%rip)
2:
  pushq $219
  .cfi_adjust_cfa_offset 8
  call _libX11_so_save_regs_and_resolve
  addq $8, %rsp
  .cfi_adjust_cfa_offset -8
  jmp 1b
  .cfi_endproc

/*
 * Copyright 2018-2021 Yury Gribov
 *
 * The MIT License (MIT)
 *
 * Use of this source code is governed by MIT license that can be
 * found in the LICENSE.txt file.
 */

  .globl XGetSubImage
  .p2align 4
  .type XGetSubImage, %function
#ifdef IMPLIB_HIDDEN_SHIMS
  .hidden XGetSubImage
#endif
XGetSubImage:
  .cfi_startproc
  // Intel opt. manual says to
  // "make the fall-through code following a conditional branch be the likely target for a branch with a forward target"
  // to hint static predictor.
  cmpq $0, _libX11_so_tramp_table+1760(%rip)
  je 2f
1:
  jmp *_libX11_so_tramp_table+1760(%rip)
2:
  pushq $220
  .cfi_adjust_cfa_offset 8
  call _libX11_so_save_regs_and_resolve
  addq $8, %rsp
  .cfi_adjust_cfa_offset -8
  jmp 1b
  .cfi_endproc

/*
 * Copyright 2018-2021 Yury Gribov
 *
 * The MIT License (MIT)
 *
 * Use of this source code is governed by MIT license that can be
 * found in the LICENSE.txt file.
 */

  .globl XGetTextProperty
  .p2align 4
  .type XGetTextProperty, %function
#ifdef IMPLIB_HIDDEN_SHIMS
  .hidden XGetTextProperty
#endif
XGetTextProperty:
  .cfi_startproc
  // Intel opt. manual says to
  // "make the fall-through code following a conditional branch be the likely target for a branch with a forward target"
  // to hint static predictor.
  cmpq $0, _libX11_so_tramp_table+1768(%rip)
  je 2f
1:
  jmp *_libX11_so_tramp_table+1768(%rip)
2:
  pushq $221
  .cfi_adjust_cfa_offset 8
  call _libX11_so_save_regs_and_resolve
  addq $8, %rsp
  .cfi_adjust_cfa_offset -8
  jmp 1b
  .cfi_endproc

/*
 * Copyright 2018-2021 Yury Gribov
 *
 * The MIT License (MIT)
 *
 * Use of this source code is governed by MIT license that can be
 * found in the LICENSE.txt file.
 */

  .globl XGetTransientForHint
  .p2align 4
  .type XGetTransientForHint, %function
#ifdef IMPLIB_HIDDEN_SHIMS
  .hidden XGetTransientForHint
#endif
XGetTransientForHint:
  .cfi_startproc
  // Intel opt. manual says to
  // "make the fall-through code following a conditional branch be the likely target for a branch with a forward target"
  // to hint static predictor.
  cmpq $0, _libX11_so_tramp_table+1776(%rip)
  je 2f
1:
  jmp *_libX11_so_tramp_table+1776(%rip)
2:
  pushq $222
  .cfi_adjust_cfa_offset 8
  call _libX11_so_save_regs_and_resolve
  addq $8, %rsp
  .cfi_adjust_cfa_offset -8
  jmp 1b
  .cfi_endproc

/*
 * Copyright 2018-2021 Yury Gribov
 *
 * The MIT License (MIT)
 *
 * Use of this source code is governed by MIT license that can be
 * found in the LICENSE.txt file.
 */

  .globl XGetVisualInfo
  .p2align 4
  .type XGetVisualInfo, %function
#ifdef IMPLIB_HIDDEN_SHIMS
  .hidden XGetVisualInfo
#endif
XGetVisualInfo:
  .cfi_startproc
  // Intel opt. manual says to
  // "make the fall-through code following a conditional branch be the likely target for a branch with a forward target"
  // to hint static predictor.
  cmpq $0, _libX11_so_tramp_table+1784(%rip)
  je 2f
1:
  jmp *_libX11_so_tramp_table+1784(%rip)
2:
  pushq $223
  .cfi_adjust_cfa_offset 8
  call _libX11_so_save_regs_and_resolve
  addq $8, %rsp
  .cfi_adjust_cfa_offset -8
  jmp 1b
  .cfi_endproc

/*
 * Copyright 2018-2021 Yury Gribov
 *
 * The MIT License (MIT)
 *
 * Use of this source code is governed by MIT license that can be
 * found in the LICENSE.txt file.
 */

  .globl XGetWMClientMachine
  .p2align 4
  .type XGetWMClientMachine, %function
#ifdef IMPLIB_HIDDEN_SHIMS
  .hidden XGetWMClientMachine
#endif
XGetWMClientMachine:
  .cfi_startproc
  // Intel opt. manual says to
  // "make the fall-through code following a conditional branch be the likely target for a branch with a forward target"
  // to hint static predictor.
  cmpq $0, _libX11_so_tramp_table+1792(%rip)
  je 2f
1:
  jmp *_libX11_so_tramp_table+1792(%rip)
2:
  pushq $224
  .cfi_adjust_cfa_offset 8
  call _libX11_so_save_regs_and_resolve
  addq $8, %rsp
  .cfi_adjust_cfa_offset -8
  jmp 1b
  .cfi_endproc

/*
 * Copyright 2018-2021 Yury Gribov
 *
 * The MIT License (MIT)
 *
 * Use of this source code is governed by MIT license that can be
 * found in the LICENSE.txt file.
 */

  .globl XGetWMColormapWindows
  .p2align 4
  .type XGetWMColormapWindows, %function
#ifdef IMPLIB_HIDDEN_SHIMS
  .hidden XGetWMColormapWindows
#endif
XGetWMColormapWindows:
  .cfi_startproc
  // Intel opt. manual says to
  // "make the fall-through code following a conditional branch be the likely target for a branch with a forward target"
  // to hint static predictor.
  cmpq $0, _libX11_so_tramp_table+1800(%rip)
  je 2f
1:
  jmp *_libX11_so_tramp_table+1800(%rip)
2:
  pushq $225
  .cfi_adjust_cfa_offset 8
  call _libX11_so_save_regs_and_resolve
  addq $8, %rsp
  .cfi_adjust_cfa_offset -8
  jmp 1b
  .cfi_endproc

/*
 * Copyright 2018-2021 Yury Gribov
 *
 * The MIT License (MIT)
 *
 * Use of this source code is governed by MIT license that can be
 * found in the LICENSE.txt file.
 */

  .globl XGetWMHints
  .p2align 4
  .type XGetWMHints, %function
#ifdef IMPLIB_HIDDEN_SHIMS
  .hidden XGetWMHints
#endif
XGetWMHints:
  .cfi_startproc
  // Intel opt. manual says to
  // "make the fall-through code following a conditional branch be the likely target for a branch with a forward target"
  // to hint static predictor.
  cmpq $0, _libX11_so_tramp_table+1808(%rip)
  je 2f
1:
  jmp *_libX11_so_tramp_table+1808(%rip)
2:
  pushq $226
  .cfi_adjust_cfa_offset 8
  call _libX11_so_save_regs_and_resolve
  addq $8, %rsp
  .cfi_adjust_cfa_offset -8
  jmp 1b
  .cfi_endproc

/*
 * Copyright 2018-2021 Yury Gribov
 *
 * The MIT License (MIT)
 *
 * Use of this source code is governed by MIT license that can be
 * found in the LICENSE.txt file.
 */

  .globl XGetWMIconName
  .p2align 4
  .type XGetWMIconName, %function
#ifdef IMPLIB_HIDDEN_SHIMS
  .hidden XGetWMIconName
#endif
XGetWMIconName:
  .cfi_startproc
  // Intel opt. manual says to
  // "make the fall-through code following a conditional branch be the likely target for a branch with a forward target"
  // to hint static predictor.
  cmpq $0, _libX11_so_tramp_table+1816(%rip)
  je 2f
1:
  jmp *_libX11_so_tramp_table+1816(%rip)
2:
  pushq $227
  .cfi_adjust_cfa_offset 8
  call _libX11_so_save_regs_and_resolve
  addq $8, %rsp
  .cfi_adjust_cfa_offset -8
  jmp 1b
  .cfi_endproc

/*
 * Copyright 2018-2021 Yury Gribov
 *
 * The MIT License (MIT)
 *
 * Use of this source code is governed by MIT license that can be
 * found in the LICENSE.txt file.
 */

  .globl XGetWMName
  .p2align 4
  .type XGetWMName, %function
#ifdef IMPLIB_HIDDEN_SHIMS
  .hidden XGetWMName
#endif
XGetWMName:
  .cfi_startproc
  // Intel opt. manual says to
  // "make the fall-through code following a conditional branch be the likely target for a branch with a forward target"
  // to hint static predictor.
  cmpq $0, _libX11_so_tramp_table+1824(%rip)
  je 2f
1:
  jmp *_libX11_so_tramp_table+1824(%rip)
2:
  pushq $228
  .cfi_adjust_cfa_offset 8
  call _libX11_so_save_regs_and_resolve
  addq $8, %rsp
  .cfi_adjust_cfa_offset -8
  jmp 1b
  .cfi_endproc

/*
 * Copyright 2018-2021 Yury Gribov
 *
 * The MIT License (MIT)
 *
 * Use of this source code is governed by MIT license that can be
 * found in the LICENSE.txt file.
 */

  .globl XGetWMNormalHints
  .p2align 4
  .type XGetWMNormalHints, %function
#ifdef IMPLIB_HIDDEN_SHIMS
  .hidden XGetWMNormalHints
#endif
XGetWMNormalHints:
  .cfi_startproc
  // Intel opt. manual says to
  // "make the fall-through code following a conditional branch be the likely target for a branch with a forward target"
  // to hint static predictor.
  cmpq $0, _libX11_so_tramp_table+1832(%rip)
  je 2f
1:
  jmp *_libX11_so_tramp_table+1832(%rip)
2:
  pushq $229
  .cfi_adjust_cfa_offset 8
  call _libX11_so_save_regs_and_resolve
  addq $8, %rsp
  .cfi_adjust_cfa_offset -8
  jmp 1b
  .cfi_endproc

/*
 * Copyright 2018-2021 Yury Gribov
 *
 * The MIT License (MIT)
 *
 * Use of this source code is governed by MIT license that can be
 * found in the LICENSE.txt file.
 */

  .globl XGetWMProtocols
  .p2align 4
  .type XGetWMProtocols, %function
#ifdef IMPLIB_HIDDEN_SHIMS
  .hidden XGetWMProtocols
#endif
XGetWMProtocols:
  .cfi_startproc
  // Intel opt. manual says to
  // "make the fall-through code following a conditional branch be the likely target for a branch with a forward target"
  // to hint static predictor.
  cmpq $0, _libX11_so_tramp_table+1840(%rip)
  je 2f
1:
  jmp *_libX11_so_tramp_table+1840(%rip)
2:
  pushq $230
  .cfi_adjust_cfa_offset 8
  call _libX11_so_save_regs_and_resolve
  addq $8, %rsp
  .cfi_adjust_cfa_offset -8
  jmp 1b
  .cfi_endproc

/*
 * Copyright 2018-2021 Yury Gribov
 *
 * The MIT License (MIT)
 *
 * Use of this source code is governed by MIT license that can be
 * found in the LICENSE.txt file.
 */

  .globl XGetWMSizeHints
  .p2align 4
  .type XGetWMSizeHints, %function
#ifdef IMPLIB_HIDDEN_SHIMS
  .hidden XGetWMSizeHints
#endif
XGetWMSizeHints:
  .cfi_startproc
  // Intel opt. manual says to
  // "make the fall-through code following a conditional branch be the likely target for a branch with a forward target"
  // to hint static predictor.
  cmpq $0, _libX11_so_tramp_table+1848(%rip)
  je 2f
1:
  jmp *_libX11_so_tramp_table+1848(%rip)
2:
  pushq $231
  .cfi_adjust_cfa_offset 8
  call _libX11_so_save_regs_and_resolve
  addq $8, %rsp
  .cfi_adjust_cfa_offset -8
  jmp 1b
  .cfi_endproc

/*
 * Copyright 2018-2021 Yury Gribov
 *
 * The MIT License (MIT)
 *
 * Use of this source code is governed by MIT license that can be
 * found in the LICENSE.txt file.
 */

  .globl XGetWindowAttributes
  .p2align 4
  .type XGetWindowAttributes, %function
#ifdef IMPLIB_HIDDEN_SHIMS
  .hidden XGetWindowAttributes
#endif
XGetWindowAttributes:
  .cfi_startproc
  // Intel opt. manual says to
  // "make the fall-through code following a conditional branch be the likely target for a branch with a forward target"
  // to hint static predictor.
  cmpq $0, _libX11_so_tramp_table+1856(%rip)
  je 2f
1:
  jmp *_libX11_so_tramp_table+1856(%rip)
2:
  pushq $232
  .cfi_adjust_cfa_offset 8
  call _libX11_so_save_regs_and_resolve
  addq $8, %rsp
  .cfi_adjust_cfa_offset -8
  jmp 1b
  .cfi_endproc

/*
 * Copyright 2018-2021 Yury Gribov
 *
 * The MIT License (MIT)
 *
 * Use of this source code is governed by MIT license that can be
 * found in the LICENSE.txt file.
 */

  .globl XGetWindowProperty
  .p2align 4
  .type XGetWindowProperty, %function
#ifdef IMPLIB_HIDDEN_SHIMS
  .hidden XGetWindowProperty
#endif
XGetWindowProperty:
  .cfi_startproc
  // Intel opt. manual says to
  // "make the fall-through code following a conditional branch be the likely target for a branch with a forward target"
  // to hint static predictor.
  cmpq $0, _libX11_so_tramp_table+1864(%rip)
  je 2f
1:
  jmp *_libX11_so_tramp_table+1864(%rip)
2:
  pushq $233
  .cfi_adjust_cfa_offset 8
  call _libX11_so_save_regs_and_resolve
  addq $8, %rsp
  .cfi_adjust_cfa_offset -8
  jmp 1b
  .cfi_endproc

/*
 * Copyright 2018-2021 Yury Gribov
 *
 * The MIT License (MIT)
 *
 * Use of this source code is governed by MIT license that can be
 * found in the LICENSE.txt file.
 */

  .globl XGetZoomHints
  .p2align 4
  .type XGetZoomHints, %function
#ifdef IMPLIB_HIDDEN_SHIMS
  .hidden XGetZoomHints
#endif
XGetZoomHints:
  .cfi_startproc
  // Intel opt. manual says to
  // "make the fall-through code following a conditional branch be the likely target for a branch with a forward target"
  // to hint static predictor.
  cmpq $0, _libX11_so_tramp_table+1872(%rip)
  je 2f
1:
  jmp *_libX11_so_tramp_table+1872(%rip)
2:
  pushq $234
  .cfi_adjust_cfa_offset 8
  call _libX11_so_save_regs_and_resolve
  addq $8, %rsp
  .cfi_adjust_cfa_offset -8
  jmp 1b
  .cfi_endproc

/*
 * Copyright 2018-2021 Yury Gribov
 *
 * The MIT License (MIT)
 *
 * Use of this source code is governed by MIT license that can be
 * found in the LICENSE.txt file.
 */

  .globl XGrabButton
  .p2align 4
  .type XGrabButton, %function
#ifdef IMPLIB_HIDDEN_SHIMS
  .hidden XGrabButton
#endif
XGrabButton:
  .cfi_startproc
  // Intel opt. manual says to
  // "make the fall-through code following a conditional branch be the likely target for a branch with a forward target"
  // to hint static predictor.
  cmpq $0, _libX11_so_tramp_table+1880(%rip)
  je 2f
1:
  jmp *_libX11_so_tramp_table+1880(%rip)
2:
  pushq $235
  .cfi_adjust_cfa_offset 8
  call _libX11_so_save_regs_and_resolve
  addq $8, %rsp
  .cfi_adjust_cfa_offset -8
  jmp 1b
  .cfi_endproc

/*
 * Copyright 2018-2021 Yury Gribov
 *
 * The MIT License (MIT)
 *
 * Use of this source code is governed by MIT license that can be
 * found in the LICENSE.txt file.
 */

  .globl XGrabKey
  .p2align 4
  .type XGrabKey, %function
#ifdef IMPLIB_HIDDEN_SHIMS
  .hidden XGrabKey
#endif
XGrabKey:
  .cfi_startproc
  // Intel opt. manual says to
  // "make the fall-through code following a conditional branch be the likely target for a branch with a forward target"
  // to hint static predictor.
  cmpq $0, _libX11_so_tramp_table+1888(%rip)
  je 2f
1:
  jmp *_libX11_so_tramp_table+1888(%rip)
2:
  pushq $236
  .cfi_adjust_cfa_offset 8
  call _libX11_so_save_regs_and_resolve
  addq $8, %rsp
  .cfi_adjust_cfa_offset -8
  jmp 1b
  .cfi_endproc

/*
 * Copyright 2018-2021 Yury Gribov
 *
 * The MIT License (MIT)
 *
 * Use of this source code is governed by MIT license that can be
 * found in the LICENSE.txt file.
 */

  .globl XGrabKeyboard
  .p2align 4
  .type XGrabKeyboard, %function
#ifdef IMPLIB_HIDDEN_SHIMS
  .hidden XGrabKeyboard
#endif
XGrabKeyboard:
  .cfi_startproc
  // Intel opt. manual says to
  // "make the fall-through code following a conditional branch be the likely target for a branch with a forward target"
  // to hint static predictor.
  cmpq $0, _libX11_so_tramp_table+1896(%rip)
  je 2f
1:
  jmp *_libX11_so_tramp_table+1896(%rip)
2:
  pushq $237
  .cfi_adjust_cfa_offset 8
  call _libX11_so_save_regs_and_resolve
  addq $8, %rsp
  .cfi_adjust_cfa_offset -8
  jmp 1b
  .cfi_endproc

/*
 * Copyright 2018-2021 Yury Gribov
 *
 * The MIT License (MIT)
 *
 * Use of this source code is governed by MIT license that can be
 * found in the LICENSE.txt file.
 */

  .globl XGrabPointer
  .p2align 4
  .type XGrabPointer, %function
#ifdef IMPLIB_HIDDEN_SHIMS
  .hidden XGrabPointer
#endif
XGrabPointer:
  .cfi_startproc
  // Intel opt. manual says to
  // "make the fall-through code following a conditional branch be the likely target for a branch with a forward target"
  // to hint static predictor.
  cmpq $0, _libX11_so_tramp_table+1904(%rip)
  je 2f
1:
  jmp *_libX11_so_tramp_table+1904(%rip)
2:
  pushq $238
  .cfi_adjust_cfa_offset 8
  call _libX11_so_save_regs_and_resolve
  addq $8, %rsp
  .cfi_adjust_cfa_offset -8
  jmp 1b
  .cfi_endproc

/*
 * Copyright 2018-2021 Yury Gribov
 *
 * The MIT License (MIT)
 *
 * Use of this source code is governed by MIT license that can be
 * found in the LICENSE.txt file.
 */

  .globl XGrabServer
  .p2align 4
  .type XGrabServer, %function
#ifdef IMPLIB_HIDDEN_SHIMS
  .hidden XGrabServer
#endif
XGrabServer:
  .cfi_startproc
  // Intel opt. manual says to
  // "make the fall-through code following a conditional branch be the likely target for a branch with a forward target"
  // to hint static predictor.
  cmpq $0, _libX11_so_tramp_table+1912(%rip)
  je 2f
1:
  jmp *_libX11_so_tramp_table+1912(%rip)
2:
  pushq $239
  .cfi_adjust_cfa_offset 8
  call _libX11_so_save_regs_and_resolve
  addq $8, %rsp
  .cfi_adjust_cfa_offset -8
  jmp 1b
  .cfi_endproc

/*
 * Copyright 2018-2021 Yury Gribov
 *
 * The MIT License (MIT)
 *
 * Use of this source code is governed by MIT license that can be
 * found in the LICENSE.txt file.
 */

  .globl XHeightMMOfScreen
  .p2align 4
  .type XHeightMMOfScreen, %function
#ifdef IMPLIB_HIDDEN_SHIMS
  .hidden XHeightMMOfScreen
#endif
XHeightMMOfScreen:
  .cfi_startproc
  // Intel opt. manual says to
  // "make the fall-through code following a conditional branch be the likely target for a branch with a forward target"
  // to hint static predictor.
  cmpq $0, _libX11_so_tramp_table+1920(%rip)
  je 2f
1:
  jmp *_libX11_so_tramp_table+1920(%rip)
2:
  pushq $240
  .cfi_adjust_cfa_offset 8
  call _libX11_so_save_regs_and_resolve
  addq $8, %rsp
  .cfi_adjust_cfa_offset -8
  jmp 1b
  .cfi_endproc

/*
 * Copyright 2018-2021 Yury Gribov
 *
 * The MIT License (MIT)
 *
 * Use of this source code is governed by MIT license that can be
 * found in the LICENSE.txt file.
 */

  .globl XHeightOfScreen
  .p2align 4
  .type XHeightOfScreen, %function
#ifdef IMPLIB_HIDDEN_SHIMS
  .hidden XHeightOfScreen
#endif
XHeightOfScreen:
  .cfi_startproc
  // Intel opt. manual says to
  // "make the fall-through code following a conditional branch be the likely target for a branch with a forward target"
  // to hint static predictor.
  cmpq $0, _libX11_so_tramp_table+1928(%rip)
  je 2f
1:
  jmp *_libX11_so_tramp_table+1928(%rip)
2:
  pushq $241
  .cfi_adjust_cfa_offset 8
  call _libX11_so_save_regs_and_resolve
  addq $8, %rsp
  .cfi_adjust_cfa_offset -8
  jmp 1b
  .cfi_endproc

/*
 * Copyright 2018-2021 Yury Gribov
 *
 * The MIT License (MIT)
 *
 * Use of this source code is governed by MIT license that can be
 * found in the LICENSE.txt file.
 */

  .globl XIMOfIC
  .p2align 4
  .type XIMOfIC, %function
#ifdef IMPLIB_HIDDEN_SHIMS
  .hidden XIMOfIC
#endif
XIMOfIC:
  .cfi_startproc
  // Intel opt. manual says to
  // "make the fall-through code following a conditional branch be the likely target for a branch with a forward target"
  // to hint static predictor.
  cmpq $0, _libX11_so_tramp_table+1936(%rip)
  je 2f
1:
  jmp *_libX11_so_tramp_table+1936(%rip)
2:
  pushq $242
  .cfi_adjust_cfa_offset 8
  call _libX11_so_save_regs_and_resolve
  addq $8, %rsp
  .cfi_adjust_cfa_offset -8
  jmp 1b
  .cfi_endproc

/*
 * Copyright 2018-2021 Yury Gribov
 *
 * The MIT License (MIT)
 *
 * Use of this source code is governed by MIT license that can be
 * found in the LICENSE.txt file.
 */

  .globl XIconifyWindow
  .p2align 4
  .type XIconifyWindow, %function
#ifdef IMPLIB_HIDDEN_SHIMS
  .hidden XIconifyWindow
#endif
XIconifyWindow:
  .cfi_startproc
  // Intel opt. manual says to
  // "make the fall-through code following a conditional branch be the likely target for a branch with a forward target"
  // to hint static predictor.
  cmpq $0, _libX11_so_tramp_table+1944(%rip)
  je 2f
1:
  jmp *_libX11_so_tramp_table+1944(%rip)
2:
  pushq $243
  .cfi_adjust_cfa_offset 8
  call _libX11_so_save_regs_and_resolve
  addq $8, %rsp
  .cfi_adjust_cfa_offset -8
  jmp 1b
  .cfi_endproc

/*
 * Copyright 2018-2021 Yury Gribov
 *
 * The MIT License (MIT)
 *
 * Use of this source code is governed by MIT license that can be
 * found in the LICENSE.txt file.
 */

  .globl XIfEvent
  .p2align 4
  .type XIfEvent, %function
#ifdef IMPLIB_HIDDEN_SHIMS
  .hidden XIfEvent
#endif
XIfEvent:
  .cfi_startproc
  // Intel opt. manual says to
  // "make the fall-through code following a conditional branch be the likely target for a branch with a forward target"
  // to hint static predictor.
  cmpq $0, _libX11_so_tramp_table+1952(%rip)
  je 2f
1:
  jmp *_libX11_so_tramp_table+1952(%rip)
2:
  pushq $244
  .cfi_adjust_cfa_offset 8
  call _libX11_so_save_regs_and_resolve
  addq $8, %rsp
  .cfi_adjust_cfa_offset -8
  jmp 1b
  .cfi_endproc

/*
 * Copyright 2018-2021 Yury Gribov
 *
 * The MIT License (MIT)
 *
 * Use of this source code is governed by MIT license that can be
 * found in the LICENSE.txt file.
 */

  .globl XImageByteOrder
  .p2align 4
  .type XImageByteOrder, %function
#ifdef IMPLIB_HIDDEN_SHIMS
  .hidden XImageByteOrder
#endif
XImageByteOrder:
  .cfi_startproc
  // Intel opt. manual says to
  // "make the fall-through code following a conditional branch be the likely target for a branch with a forward target"
  // to hint static predictor.
  cmpq $0, _libX11_so_tramp_table+1960(%rip)
  je 2f
1:
  jmp *_libX11_so_tramp_table+1960(%rip)
2:
  pushq $245
  .cfi_adjust_cfa_offset 8
  call _libX11_so_save_regs_and_resolve
  addq $8, %rsp
  .cfi_adjust_cfa_offset -8
  jmp 1b
  .cfi_endproc

/*
 * Copyright 2018-2021 Yury Gribov
 *
 * The MIT License (MIT)
 *
 * Use of this source code is governed by MIT license that can be
 * found in the LICENSE.txt file.
 */

  .globl XInitExtension
  .p2align 4
  .type XInitExtension, %function
#ifdef IMPLIB_HIDDEN_SHIMS
  .hidden XInitExtension
#endif
XInitExtension:
  .cfi_startproc
  // Intel opt. manual says to
  // "make the fall-through code following a conditional branch be the likely target for a branch with a forward target"
  // to hint static predictor.
  cmpq $0, _libX11_so_tramp_table+1968(%rip)
  je 2f
1:
  jmp *_libX11_so_tramp_table+1968(%rip)
2:
  pushq $246
  .cfi_adjust_cfa_offset 8
  call _libX11_so_save_regs_and_resolve
  addq $8, %rsp
  .cfi_adjust_cfa_offset -8
  jmp 1b
  .cfi_endproc

/*
 * Copyright 2018-2021 Yury Gribov
 *
 * The MIT License (MIT)
 *
 * Use of this source code is governed by MIT license that can be
 * found in the LICENSE.txt file.
 */

  .globl XInitImage
  .p2align 4
  .type XInitImage, %function
#ifdef IMPLIB_HIDDEN_SHIMS
  .hidden XInitImage
#endif
XInitImage:
  .cfi_startproc
  // Intel opt. manual says to
  // "make the fall-through code following a conditional branch be the likely target for a branch with a forward target"
  // to hint static predictor.
  cmpq $0, _libX11_so_tramp_table+1976(%rip)
  je 2f
1:
  jmp *_libX11_so_tramp_table+1976(%rip)
2:
  pushq $247
  .cfi_adjust_cfa_offset 8
  call _libX11_so_save_regs_and_resolve
  addq $8, %rsp
  .cfi_adjust_cfa_offset -8
  jmp 1b
  .cfi_endproc

/*
 * Copyright 2018-2021 Yury Gribov
 *
 * The MIT License (MIT)
 *
 * Use of this source code is governed by MIT license that can be
 * found in the LICENSE.txt file.
 */

  .globl XInitThreads
  .p2align 4
  .type XInitThreads, %function
#ifdef IMPLIB_HIDDEN_SHIMS
  .hidden XInitThreads
#endif
XInitThreads:
  .cfi_startproc
  // Intel opt. manual says to
  // "make the fall-through code following a conditional branch be the likely target for a branch with a forward target"
  // to hint static predictor.
  cmpq $0, _libX11_so_tramp_table+1984(%rip)
  je 2f
1:
  jmp *_libX11_so_tramp_table+1984(%rip)
2:
  pushq $248
  .cfi_adjust_cfa_offset 8
  call _libX11_so_save_regs_and_resolve
  addq $8, %rsp
  .cfi_adjust_cfa_offset -8
  jmp 1b
  .cfi_endproc

/*
 * Copyright 2018-2021 Yury Gribov
 *
 * The MIT License (MIT)
 *
 * Use of this source code is governed by MIT license that can be
 * found in the LICENSE.txt file.
 */

  .globl XInsertModifiermapEntry
  .p2align 4
  .type XInsertModifiermapEntry, %function
#ifdef IMPLIB_HIDDEN_SHIMS
  .hidden XInsertModifiermapEntry
#endif
XInsertModifiermapEntry:
  .cfi_startproc
  // Intel opt. manual says to
  // "make the fall-through code following a conditional branch be the likely target for a branch with a forward target"
  // to hint static predictor.
  cmpq $0, _libX11_so_tramp_table+1992(%rip)
  je 2f
1:
  jmp *_libX11_so_tramp_table+1992(%rip)
2:
  pushq $249
  .cfi_adjust_cfa_offset 8
  call _libX11_so_save_regs_and_resolve
  addq $8, %rsp
  .cfi_adjust_cfa_offset -8
  jmp 1b
  .cfi_endproc

/*
 * Copyright 2018-2021 Yury Gribov
 *
 * The MIT License (MIT)
 *
 * Use of this source code is governed by MIT license that can be
 * found in the LICENSE.txt file.
 */

  .globl XInstallColormap
  .p2align 4
  .type XInstallColormap, %function
#ifdef IMPLIB_HIDDEN_SHIMS
  .hidden XInstallColormap
#endif
XInstallColormap:
  .cfi_startproc
  // Intel opt. manual says to
  // "make the fall-through code following a conditional branch be the likely target for a branch with a forward target"
  // to hint static predictor.
  cmpq $0, _libX11_so_tramp_table+2000(%rip)
  je 2f
1:
  jmp *_libX11_so_tramp_table+2000(%rip)
2:
  pushq $250
  .cfi_adjust_cfa_offset 8
  call _libX11_so_save_regs_and_resolve
  addq $8, %rsp
  .cfi_adjust_cfa_offset -8
  jmp 1b
  .cfi_endproc

/*
 * Copyright 2018-2021 Yury Gribov
 *
 * The MIT License (MIT)
 *
 * Use of this source code is governed by MIT license that can be
 * found in the LICENSE.txt file.
 */

  .globl XInternAtom
  .p2align 4
  .type XInternAtom, %function
#ifdef IMPLIB_HIDDEN_SHIMS
  .hidden XInternAtom
#endif
XInternAtom:
  .cfi_startproc
  // Intel opt. manual says to
  // "make the fall-through code following a conditional branch be the likely target for a branch with a forward target"
  // to hint static predictor.
  cmpq $0, _libX11_so_tramp_table+2008(%rip)
  je 2f
1:
  jmp *_libX11_so_tramp_table+2008(%rip)
2:
  pushq $251
  .cfi_adjust_cfa_offset 8
  call _libX11_so_save_regs_and_resolve
  addq $8, %rsp
  .cfi_adjust_cfa_offset -8
  jmp 1b
  .cfi_endproc

/*
 * Copyright 2018-2021 Yury Gribov
 *
 * The MIT License (MIT)
 *
 * Use of this source code is governed by MIT license that can be
 * found in the LICENSE.txt file.
 */

  .globl XInternAtoms
  .p2align 4
  .type XInternAtoms, %function
#ifdef IMPLIB_HIDDEN_SHIMS
  .hidden XInternAtoms
#endif
XInternAtoms:
  .cfi_startproc
  // Intel opt. manual says to
  // "make the fall-through code following a conditional branch be the likely target for a branch with a forward target"
  // to hint static predictor.
  cmpq $0, _libX11_so_tramp_table+2016(%rip)
  je 2f
1:
  jmp *_libX11_so_tramp_table+2016(%rip)
2:
  pushq $252
  .cfi_adjust_cfa_offset 8
  call _libX11_so_save_regs_and_resolve
  addq $8, %rsp
  .cfi_adjust_cfa_offset -8
  jmp 1b
  .cfi_endproc

/*
 * Copyright 2018-2021 Yury Gribov
 *
 * The MIT License (MIT)
 *
 * Use of this source code is governed by MIT license that can be
 * found in the LICENSE.txt file.
 */

  .globl XInternalConnectionNumbers
  .p2align 4
  .type XInternalConnectionNumbers, %function
#ifdef IMPLIB_HIDDEN_SHIMS
  .hidden XInternalConnectionNumbers
#endif
XInternalConnectionNumbers:
  .cfi_startproc
  // Intel opt. manual says to
  // "make the fall-through code following a conditional branch be the likely target for a branch with a forward target"
  // to hint static predictor.
  cmpq $0, _libX11_so_tramp_table+2024(%rip)
  je 2f
1:
  jmp *_libX11_so_tramp_table+2024(%rip)
2:
  pushq $253
  .cfi_adjust_cfa_offset 8
  call _libX11_so_save_regs_and_resolve
  addq $8, %rsp
  .cfi_adjust_cfa_offset -8
  jmp 1b
  .cfi_endproc

/*
 * Copyright 2018-2021 Yury Gribov
 *
 * The MIT License (MIT)
 *
 * Use of this source code is governed by MIT license that can be
 * found in the LICENSE.txt file.
 */

  .globl XIntersectRegion
  .p2align 4
  .type XIntersectRegion, %function
#ifdef IMPLIB_HIDDEN_SHIMS
  .hidden XIntersectRegion
#endif
XIntersectRegion:
  .cfi_startproc
  // Intel opt. manual says to
  // "make the fall-through code following a conditional branch be the likely target for a branch with a forward target"
  // to hint static predictor.
  cmpq $0, _libX11_so_tramp_table+2032(%rip)
  je 2f
1:
  jmp *_libX11_so_tramp_table+2032(%rip)
2:
  pushq $254
  .cfi_adjust_cfa_offset 8
  call _libX11_so_save_regs_and_resolve
  addq $8, %rsp
  .cfi_adjust_cfa_offset -8
  jmp 1b
  .cfi_endproc

/*
 * Copyright 2018-2021 Yury Gribov
 *
 * The MIT License (MIT)
 *
 * Use of this source code is governed by MIT license that can be
 * found in the LICENSE.txt file.
 */

  .globl XKeycodeToKeysym
  .p2align 4
  .type XKeycodeToKeysym, %function
#ifdef IMPLIB_HIDDEN_SHIMS
  .hidden XKeycodeToKeysym
#endif
XKeycodeToKeysym:
  .cfi_startproc
  // Intel opt. manual says to
  // "make the fall-through code following a conditional branch be the likely target for a branch with a forward target"
  // to hint static predictor.
  cmpq $0, _libX11_so_tramp_table+2040(%rip)
  je 2f
1:
  jmp *_libX11_so_tramp_table+2040(%rip)
2:
  pushq $255
  .cfi_adjust_cfa_offset 8
  call _libX11_so_save_regs_and_resolve
  addq $8, %rsp
  .cfi_adjust_cfa_offset -8
  jmp 1b
  .cfi_endproc

/*
 * Copyright 2018-2021 Yury Gribov
 *
 * The MIT License (MIT)
 *
 * Use of this source code is governed by MIT license that can be
 * found in the LICENSE.txt file.
 */

  .globl XKeysymToKeycode
  .p2align 4
  .type XKeysymToKeycode, %function
#ifdef IMPLIB_HIDDEN_SHIMS
  .hidden XKeysymToKeycode
#endif
XKeysymToKeycode:
  .cfi_startproc
  // Intel opt. manual says to
  // "make the fall-through code following a conditional branch be the likely target for a branch with a forward target"
  // to hint static predictor.
  cmpq $0, _libX11_so_tramp_table+2048(%rip)
  je 2f
1:
  jmp *_libX11_so_tramp_table+2048(%rip)
2:
  pushq $256
  .cfi_adjust_cfa_offset 8
  call _libX11_so_save_regs_and_resolve
  addq $8, %rsp
  .cfi_adjust_cfa_offset -8
  jmp 1b
  .cfi_endproc

/*
 * Copyright 2018-2021 Yury Gribov
 *
 * The MIT License (MIT)
 *
 * Use of this source code is governed by MIT license that can be
 * found in the LICENSE.txt file.
 */

  .globl XKeysymToString
  .p2align 4
  .type XKeysymToString, %function
#ifdef IMPLIB_HIDDEN_SHIMS
  .hidden XKeysymToString
#endif
XKeysymToString:
  .cfi_startproc
  // Intel opt. manual says to
  // "make the fall-through code following a conditional branch be the likely target for a branch with a forward target"
  // to hint static predictor.
  cmpq $0, _libX11_so_tramp_table+2056(%rip)
  je 2f
1:
  jmp *_libX11_so_tramp_table+2056(%rip)
2:
  pushq $257
  .cfi_adjust_cfa_offset 8
  call _libX11_so_save_regs_and_resolve
  addq $8, %rsp
  .cfi_adjust_cfa_offset -8
  jmp 1b
  .cfi_endproc

/*
 * Copyright 2018-2021 Yury Gribov
 *
 * The MIT License (MIT)
 *
 * Use of this source code is governed by MIT license that can be
 * found in the LICENSE.txt file.
 */

  .globl XKillClient
  .p2align 4
  .type XKillClient, %function
#ifdef IMPLIB_HIDDEN_SHIMS
  .hidden XKillClient
#endif
XKillClient:
  .cfi_startproc
  // Intel opt. manual says to
  // "make the fall-through code following a conditional branch be the likely target for a branch with a forward target"
  // to hint static predictor.
  cmpq $0, _libX11_so_tramp_table+2064(%rip)
  je 2f
1:
  jmp *_libX11_so_tramp_table+2064(%rip)
2:
  pushq $258
  .cfi_adjust_cfa_offset 8
  call _libX11_so_save_regs_and_resolve
  addq $8, %rsp
  .cfi_adjust_cfa_offset -8
  jmp 1b
  .cfi_endproc

/*
 * Copyright 2018-2021 Yury Gribov
 *
 * The MIT License (MIT)
 *
 * Use of this source code is governed by MIT license that can be
 * found in the LICENSE.txt file.
 */

  .globl XLastKnownRequestProcessed
  .p2align 4
  .type XLastKnownRequestProcessed, %function
#ifdef IMPLIB_HIDDEN_SHIMS
  .hidden XLastKnownRequestProcessed
#endif
XLastKnownRequestProcessed:
  .cfi_startproc
  // Intel opt. manual says to
  // "make the fall-through code following a conditional branch be the likely target for a branch with a forward target"
  // to hint static predictor.
  cmpq $0, _libX11_so_tramp_table+2072(%rip)
  je 2f
1:
  jmp *_libX11_so_tramp_table+2072(%rip)
2:
  pushq $259
  .cfi_adjust_cfa_offset 8
  call _libX11_so_save_regs_and_resolve
  addq $8, %rsp
  .cfi_adjust_cfa_offset -8
  jmp 1b
  .cfi_endproc

/*
 * Copyright 2018-2021 Yury Gribov
 *
 * The MIT License (MIT)
 *
 * Use of this source code is governed by MIT license that can be
 * found in the LICENSE.txt file.
 */

  .globl XListDepths
  .p2align 4
  .type XListDepths, %function
#ifdef IMPLIB_HIDDEN_SHIMS
  .hidden XListDepths
#endif
XListDepths:
  .cfi_startproc
  // Intel opt. manual says to
  // "make the fall-through code following a conditional branch be the likely target for a branch with a forward target"
  // to hint static predictor.
  cmpq $0, _libX11_so_tramp_table+2080(%rip)
  je 2f
1:
  jmp *_libX11_so_tramp_table+2080(%rip)
2:
  pushq $260
  .cfi_adjust_cfa_offset 8
  call _libX11_so_save_regs_and_resolve
  addq $8, %rsp
  .cfi_adjust_cfa_offset -8
  jmp 1b
  .cfi_endproc

/*
 * Copyright 2018-2021 Yury Gribov
 *
 * The MIT License (MIT)
 *
 * Use of this source code is governed by MIT license that can be
 * found in the LICENSE.txt file.
 */

  .globl XListExtensions
  .p2align 4
  .type XListExtensions, %function
#ifdef IMPLIB_HIDDEN_SHIMS
  .hidden XListExtensions
#endif
XListExtensions:
  .cfi_startproc
  // Intel opt. manual says to
  // "make the fall-through code following a conditional branch be the likely target for a branch with a forward target"
  // to hint static predictor.
  cmpq $0, _libX11_so_tramp_table+2088(%rip)
  je 2f
1:
  jmp *_libX11_so_tramp_table+2088(%rip)
2:
  pushq $261
  .cfi_adjust_cfa_offset 8
  call _libX11_so_save_regs_and_resolve
  addq $8, %rsp
  .cfi_adjust_cfa_offset -8
  jmp 1b
  .cfi_endproc

/*
 * Copyright 2018-2021 Yury Gribov
 *
 * The MIT License (MIT)
 *
 * Use of this source code is governed by MIT license that can be
 * found in the LICENSE.txt file.
 */

  .globl XListFonts
  .p2align 4
  .type XListFonts, %function
#ifdef IMPLIB_HIDDEN_SHIMS
  .hidden XListFonts
#endif
XListFonts:
  .cfi_startproc
  // Intel opt. manual says to
  // "make the fall-through code following a conditional branch be the likely target for a branch with a forward target"
  // to hint static predictor.
  cmpq $0, _libX11_so_tramp_table+2096(%rip)
  je 2f
1:
  jmp *_libX11_so_tramp_table+2096(%rip)
2:
  pushq $262
  .cfi_adjust_cfa_offset 8
  call _libX11_so_save_regs_and_resolve
  addq $8, %rsp
  .cfi_adjust_cfa_offset -8
  jmp 1b
  .cfi_endproc

/*
 * Copyright 2018-2021 Yury Gribov
 *
 * The MIT License (MIT)
 *
 * Use of this source code is governed by MIT license that can be
 * found in the LICENSE.txt file.
 */

  .globl XListFontsWithInfo
  .p2align 4
  .type XListFontsWithInfo, %function
#ifdef IMPLIB_HIDDEN_SHIMS
  .hidden XListFontsWithInfo
#endif
XListFontsWithInfo:
  .cfi_startproc
  // Intel opt. manual says to
  // "make the fall-through code following a conditional branch be the likely target for a branch with a forward target"
  // to hint static predictor.
  cmpq $0, _libX11_so_tramp_table+2104(%rip)
  je 2f
1:
  jmp *_libX11_so_tramp_table+2104(%rip)
2:
  pushq $263
  .cfi_adjust_cfa_offset 8
  call _libX11_so_save_regs_and_resolve
  addq $8, %rsp
  .cfi_adjust_cfa_offset -8
  jmp 1b
  .cfi_endproc

/*
 * Copyright 2018-2021 Yury Gribov
 *
 * The MIT License (MIT)
 *
 * Use of this source code is governed by MIT license that can be
 * found in the LICENSE.txt file.
 */

  .globl XListHosts
  .p2align 4
  .type XListHosts, %function
#ifdef IMPLIB_HIDDEN_SHIMS
  .hidden XListHosts
#endif
XListHosts:
  .cfi_startproc
  // Intel opt. manual says to
  // "make the fall-through code following a conditional branch be the likely target for a branch with a forward target"
  // to hint static predictor.
  cmpq $0, _libX11_so_tramp_table+2112(%rip)
  je 2f
1:
  jmp *_libX11_so_tramp_table+2112(%rip)
2:
  pushq $264
  .cfi_adjust_cfa_offset 8
  call _libX11_so_save_regs_and_resolve
  addq $8, %rsp
  .cfi_adjust_cfa_offset -8
  jmp 1b
  .cfi_endproc

/*
 * Copyright 2018-2021 Yury Gribov
 *
 * The MIT License (MIT)
 *
 * Use of this source code is governed by MIT license that can be
 * found in the LICENSE.txt file.
 */

  .globl XListInstalledColormaps
  .p2align 4
  .type XListInstalledColormaps, %function
#ifdef IMPLIB_HIDDEN_SHIMS
  .hidden XListInstalledColormaps
#endif
XListInstalledColormaps:
  .cfi_startproc
  // Intel opt. manual says to
  // "make the fall-through code following a conditional branch be the likely target for a branch with a forward target"
  // to hint static predictor.
  cmpq $0, _libX11_so_tramp_table+2120(%rip)
  je 2f
1:
  jmp *_libX11_so_tramp_table+2120(%rip)
2:
  pushq $265
  .cfi_adjust_cfa_offset 8
  call _libX11_so_save_regs_and_resolve
  addq $8, %rsp
  .cfi_adjust_cfa_offset -8
  jmp 1b
  .cfi_endproc

/*
 * Copyright 2018-2021 Yury Gribov
 *
 * The MIT License (MIT)
 *
 * Use of this source code is governed by MIT license that can be
 * found in the LICENSE.txt file.
 */

  .globl XListPixmapFormats
  .p2align 4
  .type XListPixmapFormats, %function
#ifdef IMPLIB_HIDDEN_SHIMS
  .hidden XListPixmapFormats
#endif
XListPixmapFormats:
  .cfi_startproc
  // Intel opt. manual says to
  // "make the fall-through code following a conditional branch be the likely target for a branch with a forward target"
  // to hint static predictor.
  cmpq $0, _libX11_so_tramp_table+2128(%rip)
  je 2f
1:
  jmp *_libX11_so_tramp_table+2128(%rip)
2:
  pushq $266
  .cfi_adjust_cfa_offset 8
  call _libX11_so_save_regs_and_resolve
  addq $8, %rsp
  .cfi_adjust_cfa_offset -8
  jmp 1b
  .cfi_endproc

/*
 * Copyright 2018-2021 Yury Gribov
 *
 * The MIT License (MIT)
 *
 * Use of this source code is governed by MIT license that can be
 * found in the LICENSE.txt file.
 */

  .globl XListProperties
  .p2align 4
  .type XListProperties, %function
#ifdef IMPLIB_HIDDEN_SHIMS
  .hidden XListProperties
#endif
XListProperties:
  .cfi_startproc
  // Intel opt. manual says to
  // "make the fall-through code following a conditional branch be the likely target for a branch with a forward target"
  // to hint static predictor.
  cmpq $0, _libX11_so_tramp_table+2136(%rip)
  je 2f
1:
  jmp *_libX11_so_tramp_table+2136(%rip)
2:
  pushq $267
  .cfi_adjust_cfa_offset 8
  call _libX11_so_save_regs_and_resolve
  addq $8, %rsp
  .cfi_adjust_cfa_offset -8
  jmp 1b
  .cfi_endproc

/*
 * Copyright 2018-2021 Yury Gribov
 *
 * The MIT License (MIT)
 *
 * Use of this source code is governed by MIT license that can be
 * found in the LICENSE.txt file.
 */

  .globl XLoadFont
  .p2align 4
  .type XLoadFont, %function
#ifdef IMPLIB_HIDDEN_SHIMS
  .hidden XLoadFont
#endif
XLoadFont:
  .cfi_startproc
  // Intel opt. manual says to
  // "make the fall-through code following a conditional branch be the likely target for a branch with a forward target"
  // to hint static predictor.
  cmpq $0, _libX11_so_tramp_table+2144(%rip)
  je 2f
1:
  jmp *_libX11_so_tramp_table+2144(%rip)
2:
  pushq $268
  .cfi_adjust_cfa_offset 8
  call _libX11_so_save_regs_and_resolve
  addq $8, %rsp
  .cfi_adjust_cfa_offset -8
  jmp 1b
  .cfi_endproc

/*
 * Copyright 2018-2021 Yury Gribov
 *
 * The MIT License (MIT)
 *
 * Use of this source code is governed by MIT license that can be
 * found in the LICENSE.txt file.
 */

  .globl XLoadQueryFont
  .p2align 4
  .type XLoadQueryFont, %function
#ifdef IMPLIB_HIDDEN_SHIMS
  .hidden XLoadQueryFont
#endif
XLoadQueryFont:
  .cfi_startproc
  // Intel opt. manual says to
  // "make the fall-through code following a conditional branch be the likely target for a branch with a forward target"
  // to hint static predictor.
  cmpq $0, _libX11_so_tramp_table+2152(%rip)
  je 2f
1:
  jmp *_libX11_so_tramp_table+2152(%rip)
2:
  pushq $269
  .cfi_adjust_cfa_offset 8
  call _libX11_so_save_regs_and_resolve
  addq $8, %rsp
  .cfi_adjust_cfa_offset -8
  jmp 1b
  .cfi_endproc

/*
 * Copyright 2018-2021 Yury Gribov
 *
 * The MIT License (MIT)
 *
 * Use of this source code is governed by MIT license that can be
 * found in the LICENSE.txt file.
 */

  .globl XLocaleOfFontSet
  .p2align 4
  .type XLocaleOfFontSet, %function
#ifdef IMPLIB_HIDDEN_SHIMS
  .hidden XLocaleOfFontSet
#endif
XLocaleOfFontSet:
  .cfi_startproc
  // Intel opt. manual says to
  // "make the fall-through code following a conditional branch be the likely target for a branch with a forward target"
  // to hint static predictor.
  cmpq $0, _libX11_so_tramp_table+2160(%rip)
  je 2f
1:
  jmp *_libX11_so_tramp_table+2160(%rip)
2:
  pushq $270
  .cfi_adjust_cfa_offset 8
  call _libX11_so_save_regs_and_resolve
  addq $8, %rsp
  .cfi_adjust_cfa_offset -8
  jmp 1b
  .cfi_endproc

/*
 * Copyright 2018-2021 Yury Gribov
 *
 * The MIT License (MIT)
 *
 * Use of this source code is governed by MIT license that can be
 * found in the LICENSE.txt file.
 */

  .globl XLocaleOfIM
  .p2align 4
  .type XLocaleOfIM, %function
#ifdef IMPLIB_HIDDEN_SHIMS
  .hidden XLocaleOfIM
#endif
XLocaleOfIM:
  .cfi_startproc
  // Intel opt. manual says to
  // "make the fall-through code following a conditional branch be the likely target for a branch with a forward target"
  // to hint static predictor.
  cmpq $0, _libX11_so_tramp_table+2168(%rip)
  je 2f
1:
  jmp *_libX11_so_tramp_table+2168(%rip)
2:
  pushq $271
  .cfi_adjust_cfa_offset 8
  call _libX11_so_save_regs_and_resolve
  addq $8, %rsp
  .cfi_adjust_cfa_offset -8
  jmp 1b
  .cfi_endproc

/*
 * Copyright 2018-2021 Yury Gribov
 *
 * The MIT License (MIT)
 *
 * Use of this source code is governed by MIT license that can be
 * found in the LICENSE.txt file.
 */

  .globl XLocaleOfOM
  .p2align 4
  .type XLocaleOfOM, %function
#ifdef IMPLIB_HIDDEN_SHIMS
  .hidden XLocaleOfOM
#endif
XLocaleOfOM:
  .cfi_startproc
  // Intel opt. manual says to
  // "make the fall-through code following a conditional branch be the likely target for a branch with a forward target"
  // to hint static predictor.
  cmpq $0, _libX11_so_tramp_table+2176(%rip)
  je 2f
1:
  jmp *_libX11_so_tramp_table+2176(%rip)
2:
  pushq $272
  .cfi_adjust_cfa_offset 8
  call _libX11_so_save_regs_and_resolve
  addq $8, %rsp
  .cfi_adjust_cfa_offset -8
  jmp 1b
  .cfi_endproc

/*
 * Copyright 2018-2021 Yury Gribov
 *
 * The MIT License (MIT)
 *
 * Use of this source code is governed by MIT license that can be
 * found in the LICENSE.txt file.
 */

  .globl XLockDisplay
  .p2align 4
  .type XLockDisplay, %function
#ifdef IMPLIB_HIDDEN_SHIMS
  .hidden XLockDisplay
#endif
XLockDisplay:
  .cfi_startproc
  // Intel opt. manual says to
  // "make the fall-through code following a conditional branch be the likely target for a branch with a forward target"
  // to hint static predictor.
  cmpq $0, _libX11_so_tramp_table+2184(%rip)
  je 2f
1:
  jmp *_libX11_so_tramp_table+2184(%rip)
2:
  pushq $273
  .cfi_adjust_cfa_offset 8
  call _libX11_so_save_regs_and_resolve
  addq $8, %rsp
  .cfi_adjust_cfa_offset -8
  jmp 1b
  .cfi_endproc

/*
 * Copyright 2018-2021 Yury Gribov
 *
 * The MIT License (MIT)
 *
 * Use of this source code is governed by MIT license that can be
 * found in the LICENSE.txt file.
 */

  .globl XLookupColor
  .p2align 4
  .type XLookupColor, %function
#ifdef IMPLIB_HIDDEN_SHIMS
  .hidden XLookupColor
#endif
XLookupColor:
  .cfi_startproc
  // Intel opt. manual says to
  // "make the fall-through code following a conditional branch be the likely target for a branch with a forward target"
  // to hint static predictor.
  cmpq $0, _libX11_so_tramp_table+2192(%rip)
  je 2f
1:
  jmp *_libX11_so_tramp_table+2192(%rip)
2:
  pushq $274
  .cfi_adjust_cfa_offset 8
  call _libX11_so_save_regs_and_resolve
  addq $8, %rsp
  .cfi_adjust_cfa_offset -8
  jmp 1b
  .cfi_endproc

/*
 * Copyright 2018-2021 Yury Gribov
 *
 * The MIT License (MIT)
 *
 * Use of this source code is governed by MIT license that can be
 * found in the LICENSE.txt file.
 */

  .globl XLookupKeysym
  .p2align 4
  .type XLookupKeysym, %function
#ifdef IMPLIB_HIDDEN_SHIMS
  .hidden XLookupKeysym
#endif
XLookupKeysym:
  .cfi_startproc
  // Intel opt. manual says to
  // "make the fall-through code following a conditional branch be the likely target for a branch with a forward target"
  // to hint static predictor.
  cmpq $0, _libX11_so_tramp_table+2200(%rip)
  je 2f
1:
  jmp *_libX11_so_tramp_table+2200(%rip)
2:
  pushq $275
  .cfi_adjust_cfa_offset 8
  call _libX11_so_save_regs_and_resolve
  addq $8, %rsp
  .cfi_adjust_cfa_offset -8
  jmp 1b
  .cfi_endproc

/*
 * Copyright 2018-2021 Yury Gribov
 *
 * The MIT License (MIT)
 *
 * Use of this source code is governed by MIT license that can be
 * found in the LICENSE.txt file.
 */

  .globl XLookupString
  .p2align 4
  .type XLookupString, %function
#ifdef IMPLIB_HIDDEN_SHIMS
  .hidden XLookupString
#endif
XLookupString:
  .cfi_startproc
  // Intel opt. manual says to
  // "make the fall-through code following a conditional branch be the likely target for a branch with a forward target"
  // to hint static predictor.
  cmpq $0, _libX11_so_tramp_table+2208(%rip)
  je 2f
1:
  jmp *_libX11_so_tramp_table+2208(%rip)
2:
  pushq $276
  .cfi_adjust_cfa_offset 8
  call _libX11_so_save_regs_and_resolve
  addq $8, %rsp
  .cfi_adjust_cfa_offset -8
  jmp 1b
  .cfi_endproc

/*
 * Copyright 2018-2021 Yury Gribov
 *
 * The MIT License (MIT)
 *
 * Use of this source code is governed by MIT license that can be
 * found in the LICENSE.txt file.
 */

  .globl XLowerWindow
  .p2align 4
  .type XLowerWindow, %function
#ifdef IMPLIB_HIDDEN_SHIMS
  .hidden XLowerWindow
#endif
XLowerWindow:
  .cfi_startproc
  // Intel opt. manual says to
  // "make the fall-through code following a conditional branch be the likely target for a branch with a forward target"
  // to hint static predictor.
  cmpq $0, _libX11_so_tramp_table+2216(%rip)
  je 2f
1:
  jmp *_libX11_so_tramp_table+2216(%rip)
2:
  pushq $277
  .cfi_adjust_cfa_offset 8
  call _libX11_so_save_regs_and_resolve
  addq $8, %rsp
  .cfi_adjust_cfa_offset -8
  jmp 1b
  .cfi_endproc

/*
 * Copyright 2018-2021 Yury Gribov
 *
 * The MIT License (MIT)
 *
 * Use of this source code is governed by MIT license that can be
 * found in the LICENSE.txt file.
 */

  .globl XMapRaised
  .p2align 4
  .type XMapRaised, %function
#ifdef IMPLIB_HIDDEN_SHIMS
  .hidden XMapRaised
#endif
XMapRaised:
  .cfi_startproc
  // Intel opt. manual says to
  // "make the fall-through code following a conditional branch be the likely target for a branch with a forward target"
  // to hint static predictor.
  cmpq $0, _libX11_so_tramp_table+2224(%rip)
  je 2f
1:
  jmp *_libX11_so_tramp_table+2224(%rip)
2:
  pushq $278
  .cfi_adjust_cfa_offset 8
  call _libX11_so_save_regs_and_resolve
  addq $8, %rsp
  .cfi_adjust_cfa_offset -8
  jmp 1b
  .cfi_endproc

/*
 * Copyright 2018-2021 Yury Gribov
 *
 * The MIT License (MIT)
 *
 * Use of this source code is governed by MIT license that can be
 * found in the LICENSE.txt file.
 */

  .globl XMapSubwindows
  .p2align 4
  .type XMapSubwindows, %function
#ifdef IMPLIB_HIDDEN_SHIMS
  .hidden XMapSubwindows
#endif
XMapSubwindows:
  .cfi_startproc
  // Intel opt. manual says to
  // "make the fall-through code following a conditional branch be the likely target for a branch with a forward target"
  // to hint static predictor.
  cmpq $0, _libX11_so_tramp_table+2232(%rip)
  je 2f
1:
  jmp *_libX11_so_tramp_table+2232(%rip)
2:
  pushq $279
  .cfi_adjust_cfa_offset 8
  call _libX11_so_save_regs_and_resolve
  addq $8, %rsp
  .cfi_adjust_cfa_offset -8
  jmp 1b
  .cfi_endproc

/*
 * Copyright 2018-2021 Yury Gribov
 *
 * The MIT License (MIT)
 *
 * Use of this source code is governed by MIT license that can be
 * found in the LICENSE.txt file.
 */

  .globl XMapWindow
  .p2align 4
  .type XMapWindow, %function
#ifdef IMPLIB_HIDDEN_SHIMS
  .hidden XMapWindow
#endif
XMapWindow:
  .cfi_startproc
  // Intel opt. manual says to
  // "make the fall-through code following a conditional branch be the likely target for a branch with a forward target"
  // to hint static predictor.
  cmpq $0, _libX11_so_tramp_table+2240(%rip)
  je 2f
1:
  jmp *_libX11_so_tramp_table+2240(%rip)
2:
  pushq $280
  .cfi_adjust_cfa_offset 8
  call _libX11_so_save_regs_and_resolve
  addq $8, %rsp
  .cfi_adjust_cfa_offset -8
  jmp 1b
  .cfi_endproc

/*
 * Copyright 2018-2021 Yury Gribov
 *
 * The MIT License (MIT)
 *
 * Use of this source code is governed by MIT license that can be
 * found in the LICENSE.txt file.
 */

  .globl XMaskEvent
  .p2align 4
  .type XMaskEvent, %function
#ifdef IMPLIB_HIDDEN_SHIMS
  .hidden XMaskEvent
#endif
XMaskEvent:
  .cfi_startproc
  // Intel opt. manual says to
  // "make the fall-through code following a conditional branch be the likely target for a branch with a forward target"
  // to hint static predictor.
  cmpq $0, _libX11_so_tramp_table+2248(%rip)
  je 2f
1:
  jmp *_libX11_so_tramp_table+2248(%rip)
2:
  pushq $281
  .cfi_adjust_cfa_offset 8
  call _libX11_so_save_regs_and_resolve
  addq $8, %rsp
  .cfi_adjust_cfa_offset -8
  jmp 1b
  .cfi_endproc

/*
 * Copyright 2018-2021 Yury Gribov
 *
 * The MIT License (MIT)
 *
 * Use of this source code is governed by MIT license that can be
 * found in the LICENSE.txt file.
 */

  .globl XMatchVisualInfo
  .p2align 4
  .type XMatchVisualInfo, %function
#ifdef IMPLIB_HIDDEN_SHIMS
  .hidden XMatchVisualInfo
#endif
XMatchVisualInfo:
  .cfi_startproc
  // Intel opt. manual says to
  // "make the fall-through code following a conditional branch be the likely target for a branch with a forward target"
  // to hint static predictor.
  cmpq $0, _libX11_so_tramp_table+2256(%rip)
  je 2f
1:
  jmp *_libX11_so_tramp_table+2256(%rip)
2:
  pushq $282
  .cfi_adjust_cfa_offset 8
  call _libX11_so_save_regs_and_resolve
  addq $8, %rsp
  .cfi_adjust_cfa_offset -8
  jmp 1b
  .cfi_endproc

/*
 * Copyright 2018-2021 Yury Gribov
 *
 * The MIT License (MIT)
 *
 * Use of this source code is governed by MIT license that can be
 * found in the LICENSE.txt file.
 */

  .globl XMaxCmapsOfScreen
  .p2align 4
  .type XMaxCmapsOfScreen, %function
#ifdef IMPLIB_HIDDEN_SHIMS
  .hidden XMaxCmapsOfScreen
#endif
XMaxCmapsOfScreen:
  .cfi_startproc
  // Intel opt. manual says to
  // "make the fall-through code following a conditional branch be the likely target for a branch with a forward target"
  // to hint static predictor.
  cmpq $0, _libX11_so_tramp_table+2264(%rip)
  je 2f
1:
  jmp *_libX11_so_tramp_table+2264(%rip)
2:
  pushq $283
  .cfi_adjust_cfa_offset 8
  call _libX11_so_save_regs_and_resolve
  addq $8, %rsp
  .cfi_adjust_cfa_offset -8
  jmp 1b
  .cfi_endproc

/*
 * Copyright 2018-2021 Yury Gribov
 *
 * The MIT License (MIT)
 *
 * Use of this source code is governed by MIT license that can be
 * found in the LICENSE.txt file.
 */

  .globl XMaxRequestSize
  .p2align 4
  .type XMaxRequestSize, %function
#ifdef IMPLIB_HIDDEN_SHIMS
  .hidden XMaxRequestSize
#endif
XMaxRequestSize:
  .cfi_startproc
  // Intel opt. manual says to
  // "make the fall-through code following a conditional branch be the likely target for a branch with a forward target"
  // to hint static predictor.
  cmpq $0, _libX11_so_tramp_table+2272(%rip)
  je 2f
1:
  jmp *_libX11_so_tramp_table+2272(%rip)
2:
  pushq $284
  .cfi_adjust_cfa_offset 8
  call _libX11_so_save_regs_and_resolve
  addq $8, %rsp
  .cfi_adjust_cfa_offset -8
  jmp 1b
  .cfi_endproc

/*
 * Copyright 2018-2021 Yury Gribov
 *
 * The MIT License (MIT)
 *
 * Use of this source code is governed by MIT license that can be
 * found in the LICENSE.txt file.
 */

  .globl XMinCmapsOfScreen
  .p2align 4
  .type XMinCmapsOfScreen, %function
#ifdef IMPLIB_HIDDEN_SHIMS
  .hidden XMinCmapsOfScreen
#endif
XMinCmapsOfScreen:
  .cfi_startproc
  // Intel opt. manual says to
  // "make the fall-through code following a conditional branch be the likely target for a branch with a forward target"
  // to hint static predictor.
  cmpq $0, _libX11_so_tramp_table+2280(%rip)
  je 2f
1:
  jmp *_libX11_so_tramp_table+2280(%rip)
2:
  pushq $285
  .cfi_adjust_cfa_offset 8
  call _libX11_so_save_regs_and_resolve
  addq $8, %rsp
  .cfi_adjust_cfa_offset -8
  jmp 1b
  .cfi_endproc

/*
 * Copyright 2018-2021 Yury Gribov
 *
 * The MIT License (MIT)
 *
 * Use of this source code is governed by MIT license that can be
 * found in the LICENSE.txt file.
 */

  .globl XMoveResizeWindow
  .p2align 4
  .type XMoveResizeWindow, %function
#ifdef IMPLIB_HIDDEN_SHIMS
  .hidden XMoveResizeWindow
#endif
XMoveResizeWindow:
  .cfi_startproc
  // Intel opt. manual says to
  // "make the fall-through code following a conditional branch be the likely target for a branch with a forward target"
  // to hint static predictor.
  cmpq $0, _libX11_so_tramp_table+2288(%rip)
  je 2f
1:
  jmp *_libX11_so_tramp_table+2288(%rip)
2:
  pushq $286
  .cfi_adjust_cfa_offset 8
  call _libX11_so_save_regs_and_resolve
  addq $8, %rsp
  .cfi_adjust_cfa_offset -8
  jmp 1b
  .cfi_endproc

/*
 * Copyright 2018-2021 Yury Gribov
 *
 * The MIT License (MIT)
 *
 * Use of this source code is governed by MIT license that can be
 * found in the LICENSE.txt file.
 */

  .globl XMoveWindow
  .p2align 4
  .type XMoveWindow, %function
#ifdef IMPLIB_HIDDEN_SHIMS
  .hidden XMoveWindow
#endif
XMoveWindow:
  .cfi_startproc
  // Intel opt. manual says to
  // "make the fall-through code following a conditional branch be the likely target for a branch with a forward target"
  // to hint static predictor.
  cmpq $0, _libX11_so_tramp_table+2296(%rip)
  je 2f
1:
  jmp *_libX11_so_tramp_table+2296(%rip)
2:
  pushq $287
  .cfi_adjust_cfa_offset 8
  call _libX11_so_save_regs_and_resolve
  addq $8, %rsp
  .cfi_adjust_cfa_offset -8
  jmp 1b
  .cfi_endproc

/*
 * Copyright 2018-2021 Yury Gribov
 *
 * The MIT License (MIT)
 *
 * Use of this source code is governed by MIT license that can be
 * found in the LICENSE.txt file.
 */

  .globl XNewModifiermap
  .p2align 4
  .type XNewModifiermap, %function
#ifdef IMPLIB_HIDDEN_SHIMS
  .hidden XNewModifiermap
#endif
XNewModifiermap:
  .cfi_startproc
  // Intel opt. manual says to
  // "make the fall-through code following a conditional branch be the likely target for a branch with a forward target"
  // to hint static predictor.
  cmpq $0, _libX11_so_tramp_table+2304(%rip)
  je 2f
1:
  jmp *_libX11_so_tramp_table+2304(%rip)
2:
  pushq $288
  .cfi_adjust_cfa_offset 8
  call _libX11_so_save_regs_and_resolve
  addq $8, %rsp
  .cfi_adjust_cfa_offset -8
  jmp 1b
  .cfi_endproc

/*
 * Copyright 2018-2021 Yury Gribov
 *
 * The MIT License (MIT)
 *
 * Use of this source code is governed by MIT license that can be
 * found in the LICENSE.txt file.
 */

  .globl XNextEvent
  .p2align 4
  .type XNextEvent, %function
#ifdef IMPLIB_HIDDEN_SHIMS
  .hidden XNextEvent
#endif
XNextEvent:
  .cfi_startproc
  // Intel opt. manual says to
  // "make the fall-through code following a conditional branch be the likely target for a branch with a forward target"
  // to hint static predictor.
  cmpq $0, _libX11_so_tramp_table+2312(%rip)
  je 2f
1:
  jmp *_libX11_so_tramp_table+2312(%rip)
2:
  pushq $289
  .cfi_adjust_cfa_offset 8
  call _libX11_so_save_regs_and_resolve
  addq $8, %rsp
  .cfi_adjust_cfa_offset -8
  jmp 1b
  .cfi_endproc

/*
 * Copyright 2018-2021 Yury Gribov
 *
 * The MIT License (MIT)
 *
 * Use of this source code is governed by MIT license that can be
 * found in the LICENSE.txt file.
 */

  .globl XNextRequest
  .p2align 4
  .type XNextRequest, %function
#ifdef IMPLIB_HIDDEN_SHIMS
  .hidden XNextRequest
#endif
XNextRequest:
  .cfi_startproc
  // Intel opt. manual says to
  // "make the fall-through code following a conditional branch be the likely target for a branch with a forward target"
  // to hint static predictor.
  cmpq $0, _libX11_so_tramp_table+2320(%rip)
  je 2f
1:
  jmp *_libX11_so_tramp_table+2320(%rip)
2:
  pushq $290
  .cfi_adjust_cfa_offset 8
  call _libX11_so_save_regs_and_resolve
  addq $8, %rsp
  .cfi_adjust_cfa_offset -8
  jmp 1b
  .cfi_endproc

/*
 * Copyright 2018-2021 Yury Gribov
 *
 * The MIT License (MIT)
 *
 * Use of this source code is governed by MIT license that can be
 * found in the LICENSE.txt file.
 */

  .globl XNoOp
  .p2align 4
  .type XNoOp, %function
#ifdef IMPLIB_HIDDEN_SHIMS
  .hidden XNoOp
#endif
XNoOp:
  .cfi_startproc
  // Intel opt. manual says to
  // "make the fall-through code following a conditional branch be the likely target for a branch with a forward target"
  // to hint static predictor.
  cmpq $0, _libX11_so_tramp_table+2328(%rip)
  je 2f
1:
  jmp *_libX11_so_tramp_table+2328(%rip)
2:
  pushq $291
  .cfi_adjust_cfa_offset 8
  call _libX11_so_save_regs_and_resolve
  addq $8, %rsp
  .cfi_adjust_cfa_offset -8
  jmp 1b
  .cfi_endproc

/*
 * Copyright 2018-2021 Yury Gribov
 *
 * The MIT License (MIT)
 *
 * Use of this source code is governed by MIT license that can be
 * found in the LICENSE.txt file.
 */

  .globl XOMOfOC
  .p2align 4
  .type XOMOfOC, %function
#ifdef IMPLIB_HIDDEN_SHIMS
  .hidden XOMOfOC
#endif
XOMOfOC:
  .cfi_startproc
  // Intel opt. manual says to
  // "make the fall-through code following a conditional branch be the likely target for a branch with a forward target"
  // to hint static predictor.
  cmpq $0, _libX11_so_tramp_table+2336(%rip)
  je 2f
1:
  jmp *_libX11_so_tramp_table+2336(%rip)
2:
  pushq $292
  .cfi_adjust_cfa_offset 8
  call _libX11_so_save_regs_and_resolve
  addq $8, %rsp
  .cfi_adjust_cfa_offset -8
  jmp 1b
  .cfi_endproc

/*
 * Copyright 2018-2021 Yury Gribov
 *
 * The MIT License (MIT)
 *
 * Use of this source code is governed by MIT license that can be
 * found in the LICENSE.txt file.
 */

  .globl XOffsetRegion
  .p2align 4
  .type XOffsetRegion, %function
#ifdef IMPLIB_HIDDEN_SHIMS
  .hidden XOffsetRegion
#endif
XOffsetRegion:
  .cfi_startproc
  // Intel opt. manual says to
  // "make the fall-through code following a conditional branch be the likely target for a branch with a forward target"
  // to hint static predictor.
  cmpq $0, _libX11_so_tramp_table+2344(%rip)
  je 2f
1:
  jmp *_libX11_so_tramp_table+2344(%rip)
2:
  pushq $293
  .cfi_adjust_cfa_offset 8
  call _libX11_so_save_regs_and_resolve
  addq $8, %rsp
  .cfi_adjust_cfa_offset -8
  jmp 1b
  .cfi_endproc

/*
 * Copyright 2018-2021 Yury Gribov
 *
 * The MIT License (MIT)
 *
 * Use of this source code is governed by MIT license that can be
 * found in the LICENSE.txt file.
 */

  .globl XOpenDisplay
  .p2align 4
  .type XOpenDisplay, %function
#ifdef IMPLIB_HIDDEN_SHIMS
  .hidden XOpenDisplay
#endif
XOpenDisplay:
  .cfi_startproc
  // Intel opt. manual says to
  // "make the fall-through code following a conditional branch be the likely target for a branch with a forward target"
  // to hint static predictor.
  cmpq $0, _libX11_so_tramp_table+2352(%rip)
  je 2f
1:
  jmp *_libX11_so_tramp_table+2352(%rip)
2:
  pushq $294
  .cfi_adjust_cfa_offset 8
  call _libX11_so_save_regs_and_resolve
  addq $8, %rsp
  .cfi_adjust_cfa_offset -8
  jmp 1b
  .cfi_endproc

/*
 * Copyright 2018-2021 Yury Gribov
 *
 * The MIT License (MIT)
 *
 * Use of this source code is governed by MIT license that can be
 * found in the LICENSE.txt file.
 */

  .globl XOpenIM
  .p2align 4
  .type XOpenIM, %function
#ifdef IMPLIB_HIDDEN_SHIMS
  .hidden XOpenIM
#endif
XOpenIM:
  .cfi_startproc
  // Intel opt. manual says to
  // "make the fall-through code following a conditional branch be the likely target for a branch with a forward target"
  // to hint static predictor.
  cmpq $0, _libX11_so_tramp_table+2360(%rip)
  je 2f
1:
  jmp *_libX11_so_tramp_table+2360(%rip)
2:
  pushq $295
  .cfi_adjust_cfa_offset 8
  call _libX11_so_save_regs_and_resolve
  addq $8, %rsp
  .cfi_adjust_cfa_offset -8
  jmp 1b
  .cfi_endproc

/*
 * Copyright 2018-2021 Yury Gribov
 *
 * The MIT License (MIT)
 *
 * Use of this source code is governed by MIT license that can be
 * found in the LICENSE.txt file.
 */

  .globl XOpenOM
  .p2align 4
  .type XOpenOM, %function
#ifdef IMPLIB_HIDDEN_SHIMS
  .hidden XOpenOM
#endif
XOpenOM:
  .cfi_startproc
  // Intel opt. manual says to
  // "make the fall-through code following a conditional branch be the likely target for a branch with a forward target"
  // to hint static predictor.
  cmpq $0, _libX11_so_tramp_table+2368(%rip)
  je 2f
1:
  jmp *_libX11_so_tramp_table+2368(%rip)
2:
  pushq $296
  .cfi_adjust_cfa_offset 8
  call _libX11_so_save_regs_and_resolve
  addq $8, %rsp
  .cfi_adjust_cfa_offset -8
  jmp 1b
  .cfi_endproc

/*
 * Copyright 2018-2021 Yury Gribov
 *
 * The MIT License (MIT)
 *
 * Use of this source code is governed by MIT license that can be
 * found in the LICENSE.txt file.
 */

  .globl XParseColor
  .p2align 4
  .type XParseColor, %function
#ifdef IMPLIB_HIDDEN_SHIMS
  .hidden XParseColor
#endif
XParseColor:
  .cfi_startproc
  // Intel opt. manual says to
  // "make the fall-through code following a conditional branch be the likely target for a branch with a forward target"
  // to hint static predictor.
  cmpq $0, _libX11_so_tramp_table+2376(%rip)
  je 2f
1:
  jmp *_libX11_so_tramp_table+2376(%rip)
2:
  pushq $297
  .cfi_adjust_cfa_offset 8
  call _libX11_so_save_regs_and_resolve
  addq $8, %rsp
  .cfi_adjust_cfa_offset -8
  jmp 1b
  .cfi_endproc

/*
 * Copyright 2018-2021 Yury Gribov
 *
 * The MIT License (MIT)
 *
 * Use of this source code is governed by MIT license that can be
 * found in the LICENSE.txt file.
 */

  .globl XParseGeometry
  .p2align 4
  .type XParseGeometry, %function
#ifdef IMPLIB_HIDDEN_SHIMS
  .hidden XParseGeometry
#endif
XParseGeometry:
  .cfi_startproc
  // Intel opt. manual says to
  // "make the fall-through code following a conditional branch be the likely target for a branch with a forward target"
  // to hint static predictor.
  cmpq $0, _libX11_so_tramp_table+2384(%rip)
  je 2f
1:
  jmp *_libX11_so_tramp_table+2384(%rip)
2:
  pushq $298
  .cfi_adjust_cfa_offset 8
  call _libX11_so_save_regs_and_resolve
  addq $8, %rsp
  .cfi_adjust_cfa_offset -8
  jmp 1b
  .cfi_endproc

/*
 * Copyright 2018-2021 Yury Gribov
 *
 * The MIT License (MIT)
 *
 * Use of this source code is governed by MIT license that can be
 * found in the LICENSE.txt file.
 */

  .globl XPeekEvent
  .p2align 4
  .type XPeekEvent, %function
#ifdef IMPLIB_HIDDEN_SHIMS
  .hidden XPeekEvent
#endif
XPeekEvent:
  .cfi_startproc
  // Intel opt. manual says to
  // "make the fall-through code following a conditional branch be the likely target for a branch with a forward target"
  // to hint static predictor.
  cmpq $0, _libX11_so_tramp_table+2392(%rip)
  je 2f
1:
  jmp *_libX11_so_tramp_table+2392(%rip)
2:
  pushq $299
  .cfi_adjust_cfa_offset 8
  call _libX11_so_save_regs_and_resolve
  addq $8, %rsp
  .cfi_adjust_cfa_offset -8
  jmp 1b
  .cfi_endproc

/*
 * Copyright 2018-2021 Yury Gribov
 *
 * The MIT License (MIT)
 *
 * Use of this source code is governed by MIT license that can be
 * found in the LICENSE.txt file.
 */

  .globl XPeekIfEvent
  .p2align 4
  .type XPeekIfEvent, %function
#ifdef IMPLIB_HIDDEN_SHIMS
  .hidden XPeekIfEvent
#endif
XPeekIfEvent:
  .cfi_startproc
  // Intel opt. manual says to
  // "make the fall-through code following a conditional branch be the likely target for a branch with a forward target"
  // to hint static predictor.
  cmpq $0, _libX11_so_tramp_table+2400(%rip)
  je 2f
1:
  jmp *_libX11_so_tramp_table+2400(%rip)
2:
  pushq $300
  .cfi_adjust_cfa_offset 8
  call _libX11_so_save_regs_and_resolve
  addq $8, %rsp
  .cfi_adjust_cfa_offset -8
  jmp 1b
  .cfi_endproc

/*
 * Copyright 2018-2021 Yury Gribov
 *
 * The MIT License (MIT)
 *
 * Use of this source code is governed by MIT license that can be
 * found in the LICENSE.txt file.
 */

  .globl XPending
  .p2align 4
  .type XPending, %function
#ifdef IMPLIB_HIDDEN_SHIMS
  .hidden XPending
#endif
XPending:
  .cfi_startproc
  // Intel opt. manual says to
  // "make the fall-through code following a conditional branch be the likely target for a branch with a forward target"
  // to hint static predictor.
  cmpq $0, _libX11_so_tramp_table+2408(%rip)
  je 2f
1:
  jmp *_libX11_so_tramp_table+2408(%rip)
2:
  pushq $301
  .cfi_adjust_cfa_offset 8
  call _libX11_so_save_regs_and_resolve
  addq $8, %rsp
  .cfi_adjust_cfa_offset -8
  jmp 1b
  .cfi_endproc

/*
 * Copyright 2018-2021 Yury Gribov
 *
 * The MIT License (MIT)
 *
 * Use of this source code is governed by MIT license that can be
 * found in the LICENSE.txt file.
 */

  .globl XPlanesOfScreen
  .p2align 4
  .type XPlanesOfScreen, %function
#ifdef IMPLIB_HIDDEN_SHIMS
  .hidden XPlanesOfScreen
#endif
XPlanesOfScreen:
  .cfi_startproc
  // Intel opt. manual says to
  // "make the fall-through code following a conditional branch be the likely target for a branch with a forward target"
  // to hint static predictor.
  cmpq $0, _libX11_so_tramp_table+2416(%rip)
  je 2f
1:
  jmp *_libX11_so_tramp_table+2416(%rip)
2:
  pushq $302
  .cfi_adjust_cfa_offset 8
  call _libX11_so_save_regs_and_resolve
  addq $8, %rsp
  .cfi_adjust_cfa_offset -8
  jmp 1b
  .cfi_endproc

/*
 * Copyright 2018-2021 Yury Gribov
 *
 * The MIT License (MIT)
 *
 * Use of this source code is governed by MIT license that can be
 * found in the LICENSE.txt file.
 */

  .globl XPointInRegion
  .p2align 4
  .type XPointInRegion, %function
#ifdef IMPLIB_HIDDEN_SHIMS
  .hidden XPointInRegion
#endif
XPointInRegion:
  .cfi_startproc
  // Intel opt. manual says to
  // "make the fall-through code following a conditional branch be the likely target for a branch with a forward target"
  // to hint static predictor.
  cmpq $0, _libX11_so_tramp_table+2424(%rip)
  je 2f
1:
  jmp *_libX11_so_tramp_table+2424(%rip)
2:
  pushq $303
  .cfi_adjust_cfa_offset 8
  call _libX11_so_save_regs_and_resolve
  addq $8, %rsp
  .cfi_adjust_cfa_offset -8
  jmp 1b
  .cfi_endproc

/*
 * Copyright 2018-2021 Yury Gribov
 *
 * The MIT License (MIT)
 *
 * Use of this source code is governed by MIT license that can be
 * found in the LICENSE.txt file.
 */

  .globl XPolygonRegion
  .p2align 4
  .type XPolygonRegion, %function
#ifdef IMPLIB_HIDDEN_SHIMS
  .hidden XPolygonRegion
#endif
XPolygonRegion:
  .cfi_startproc
  // Intel opt. manual says to
  // "make the fall-through code following a conditional branch be the likely target for a branch with a forward target"
  // to hint static predictor.
  cmpq $0, _libX11_so_tramp_table+2432(%rip)
  je 2f
1:
  jmp *_libX11_so_tramp_table+2432(%rip)
2:
  pushq $304
  .cfi_adjust_cfa_offset 8
  call _libX11_so_save_regs_and_resolve
  addq $8, %rsp
  .cfi_adjust_cfa_offset -8
  jmp 1b
  .cfi_endproc

/*
 * Copyright 2018-2021 Yury Gribov
 *
 * The MIT License (MIT)
 *
 * Use of this source code is governed by MIT license that can be
 * found in the LICENSE.txt file.
 */

  .globl XProcessInternalConnection
  .p2align 4
  .type XProcessInternalConnection, %function
#ifdef IMPLIB_HIDDEN_SHIMS
  .hidden XProcessInternalConnection
#endif
XProcessInternalConnection:
  .cfi_startproc
  // Intel opt. manual says to
  // "make the fall-through code following a conditional branch be the likely target for a branch with a forward target"
  // to hint static predictor.
  cmpq $0, _libX11_so_tramp_table+2440(%rip)
  je 2f
1:
  jmp *_libX11_so_tramp_table+2440(%rip)
2:
  pushq $305
  .cfi_adjust_cfa_offset 8
  call _libX11_so_save_regs_and_resolve
  addq $8, %rsp
  .cfi_adjust_cfa_offset -8
  jmp 1b
  .cfi_endproc

/*
 * Copyright 2018-2021 Yury Gribov
 *
 * The MIT License (MIT)
 *
 * Use of this source code is governed by MIT license that can be
 * found in the LICENSE.txt file.
 */

  .globl XProtocolRevision
  .p2align 4
  .type XProtocolRevision, %function
#ifdef IMPLIB_HIDDEN_SHIMS
  .hidden XProtocolRevision
#endif
XProtocolRevision:
  .cfi_startproc
  // Intel opt. manual says to
  // "make the fall-through code following a conditional branch be the likely target for a branch with a forward target"
  // to hint static predictor.
  cmpq $0, _libX11_so_tramp_table+2448(%rip)
  je 2f
1:
  jmp *_libX11_so_tramp_table+2448(%rip)
2:
  pushq $306
  .cfi_adjust_cfa_offset 8
  call _libX11_so_save_regs_and_resolve
  addq $8, %rsp
  .cfi_adjust_cfa_offset -8
  jmp 1b
  .cfi_endproc

/*
 * Copyright 2018-2021 Yury Gribov
 *
 * The MIT License (MIT)
 *
 * Use of this source code is governed by MIT license that can be
 * found in the LICENSE.txt file.
 */

  .globl XProtocolVersion
  .p2align 4
  .type XProtocolVersion, %function
#ifdef IMPLIB_HIDDEN_SHIMS
  .hidden XProtocolVersion
#endif
XProtocolVersion:
  .cfi_startproc
  // Intel opt. manual says to
  // "make the fall-through code following a conditional branch be the likely target for a branch with a forward target"
  // to hint static predictor.
  cmpq $0, _libX11_so_tramp_table+2456(%rip)
  je 2f
1:
  jmp *_libX11_so_tramp_table+2456(%rip)
2:
  pushq $307
  .cfi_adjust_cfa_offset 8
  call _libX11_so_save_regs_and_resolve
  addq $8, %rsp
  .cfi_adjust_cfa_offset -8
  jmp 1b
  .cfi_endproc

/*
 * Copyright 2018-2021 Yury Gribov
 *
 * The MIT License (MIT)
 *
 * Use of this source code is governed by MIT license that can be
 * found in the LICENSE.txt file.
 */

  .globl XPutBackEvent
  .p2align 4
  .type XPutBackEvent, %function
#ifdef IMPLIB_HIDDEN_SHIMS
  .hidden XPutBackEvent
#endif
XPutBackEvent:
  .cfi_startproc
  // Intel opt. manual says to
  // "make the fall-through code following a conditional branch be the likely target for a branch with a forward target"
  // to hint static predictor.
  cmpq $0, _libX11_so_tramp_table+2464(%rip)
  je 2f
1:
  jmp *_libX11_so_tramp_table+2464(%rip)
2:
  pushq $308
  .cfi_adjust_cfa_offset 8
  call _libX11_so_save_regs_and_resolve
  addq $8, %rsp
  .cfi_adjust_cfa_offset -8
  jmp 1b
  .cfi_endproc

/*
 * Copyright 2018-2021 Yury Gribov
 *
 * The MIT License (MIT)
 *
 * Use of this source code is governed by MIT license that can be
 * found in the LICENSE.txt file.
 */

  .globl XPutImage
  .p2align 4
  .type XPutImage, %function
#ifdef IMPLIB_HIDDEN_SHIMS
  .hidden XPutImage
#endif
XPutImage:
  .cfi_startproc
  // Intel opt. manual says to
  // "make the fall-through code following a conditional branch be the likely target for a branch with a forward target"
  // to hint static predictor.
  cmpq $0, _libX11_so_tramp_table+2472(%rip)
  je 2f
1:
  jmp *_libX11_so_tramp_table+2472(%rip)
2:
  pushq $309
  .cfi_adjust_cfa_offset 8
  call _libX11_so_save_regs_and_resolve
  addq $8, %rsp
  .cfi_adjust_cfa_offset -8
  jmp 1b
  .cfi_endproc

/*
 * Copyright 2018-2021 Yury Gribov
 *
 * The MIT License (MIT)
 *
 * Use of this source code is governed by MIT license that can be
 * found in the LICENSE.txt file.
 */

  .globl XPutPixel
  .p2align 4
  .type XPutPixel, %function
#ifdef IMPLIB_HIDDEN_SHIMS
  .hidden XPutPixel
#endif
XPutPixel:
  .cfi_startproc
  // Intel opt. manual says to
  // "make the fall-through code following a conditional branch be the likely target for a branch with a forward target"
  // to hint static predictor.
  cmpq $0, _libX11_so_tramp_table+2480(%rip)
  je 2f
1:
  jmp *_libX11_so_tramp_table+2480(%rip)
2:
  pushq $310
  .cfi_adjust_cfa_offset 8
  call _libX11_so_save_regs_and_resolve
  addq $8, %rsp
  .cfi_adjust_cfa_offset -8
  jmp 1b
  .cfi_endproc

/*
 * Copyright 2018-2021 Yury Gribov
 *
 * The MIT License (MIT)
 *
 * Use of this source code is governed by MIT license that can be
 * found in the LICENSE.txt file.
 */

  .globl XQLength
  .p2align 4
  .type XQLength, %function
#ifdef IMPLIB_HIDDEN_SHIMS
  .hidden XQLength
#endif
XQLength:
  .cfi_startproc
  // Intel opt. manual says to
  // "make the fall-through code following a conditional branch be the likely target for a branch with a forward target"
  // to hint static predictor.
  cmpq $0, _libX11_so_tramp_table+2488(%rip)
  je 2f
1:
  jmp *_libX11_so_tramp_table+2488(%rip)
2:
  pushq $311
  .cfi_adjust_cfa_offset 8
  call _libX11_so_save_regs_and_resolve
  addq $8, %rsp
  .cfi_adjust_cfa_offset -8
  jmp 1b
  .cfi_endproc

/*
 * Copyright 2018-2021 Yury Gribov
 *
 * The MIT License (MIT)
 *
 * Use of this source code is governed by MIT license that can be
 * found in the LICENSE.txt file.
 */

  .globl XQueryBestCursor
  .p2align 4
  .type XQueryBestCursor, %function
#ifdef IMPLIB_HIDDEN_SHIMS
  .hidden XQueryBestCursor
#endif
XQueryBestCursor:
  .cfi_startproc
  // Intel opt. manual says to
  // "make the fall-through code following a conditional branch be the likely target for a branch with a forward target"
  // to hint static predictor.
  cmpq $0, _libX11_so_tramp_table+2496(%rip)
  je 2f
1:
  jmp *_libX11_so_tramp_table+2496(%rip)
2:
  pushq $312
  .cfi_adjust_cfa_offset 8
  call _libX11_so_save_regs_and_resolve
  addq $8, %rsp
  .cfi_adjust_cfa_offset -8
  jmp 1b
  .cfi_endproc

/*
 * Copyright 2018-2021 Yury Gribov
 *
 * The MIT License (MIT)
 *
 * Use of this source code is governed by MIT license that can be
 * found in the LICENSE.txt file.
 */

  .globl XQueryBestSize
  .p2align 4
  .type XQueryBestSize, %function
#ifdef IMPLIB_HIDDEN_SHIMS
  .hidden XQueryBestSize
#endif
XQueryBestSize:
  .cfi_startproc
  // Intel opt. manual says to
  // "make the fall-through code following a conditional branch be the likely target for a branch with a forward target"
  // to hint static predictor.
  cmpq $0, _libX11_so_tramp_table+2504(%rip)
  je 2f
1:
  jmp *_libX11_so_tramp_table+2504(%rip)
2:
  pushq $313
  .cfi_adjust_cfa_offset 8
  call _libX11_so_save_regs_and_resolve
  addq $8, %rsp
  .cfi_adjust_cfa_offset -8
  jmp 1b
  .cfi_endproc

/*
 * Copyright 2018-2021 Yury Gribov
 *
 * The MIT License (MIT)
 *
 * Use of this source code is governed by MIT license that can be
 * found in the LICENSE.txt file.
 */

  .globl XQueryBestStipple
  .p2align 4
  .type XQueryBestStipple, %function
#ifdef IMPLIB_HIDDEN_SHIMS
  .hidden XQueryBestStipple
#endif
XQueryBestStipple:
  .cfi_startproc
  // Intel opt. manual says to
  // "make the fall-through code following a conditional branch be the likely target for a branch with a forward target"
  // to hint static predictor.
  cmpq $0, _libX11_so_tramp_table+2512(%rip)
  je 2f
1:
  jmp *_libX11_so_tramp_table+2512(%rip)
2:
  pushq $314
  .cfi_adjust_cfa_offset 8
  call _libX11_so_save_regs_and_resolve
  addq $8, %rsp
  .cfi_adjust_cfa_offset -8
  jmp 1b
  .cfi_endproc

/*
 * Copyright 2018-2021 Yury Gribov
 *
 * The MIT License (MIT)
 *
 * Use of this source code is governed by MIT license that can be
 * found in the LICENSE.txt file.
 */

  .globl XQueryBestTile
  .p2align 4
  .type XQueryBestTile, %function
#ifdef IMPLIB_HIDDEN_SHIMS
  .hidden XQueryBestTile
#endif
XQueryBestTile:
  .cfi_startproc
  // Intel opt. manual says to
  // "make the fall-through code following a conditional branch be the likely target for a branch with a forward target"
  // to hint static predictor.
  cmpq $0, _libX11_so_tramp_table+2520(%rip)
  je 2f
1:
  jmp *_libX11_so_tramp_table+2520(%rip)
2:
  pushq $315
  .cfi_adjust_cfa_offset 8
  call _libX11_so_save_regs_and_resolve
  addq $8, %rsp
  .cfi_adjust_cfa_offset -8
  jmp 1b
  .cfi_endproc

/*
 * Copyright 2018-2021 Yury Gribov
 *
 * The MIT License (MIT)
 *
 * Use of this source code is governed by MIT license that can be
 * found in the LICENSE.txt file.
 */

  .globl XQueryColor
  .p2align 4
  .type XQueryColor, %function
#ifdef IMPLIB_HIDDEN_SHIMS
  .hidden XQueryColor
#endif
XQueryColor:
  .cfi_startproc
  // Intel opt. manual says to
  // "make the fall-through code following a conditional branch be the likely target for a branch with a forward target"
  // to hint static predictor.
  cmpq $0, _libX11_so_tramp_table+2528(%rip)
  je 2f
1:
  jmp *_libX11_so_tramp_table+2528(%rip)
2:
  pushq $316
  .cfi_adjust_cfa_offset 8
  call _libX11_so_save_regs_and_resolve
  addq $8, %rsp
  .cfi_adjust_cfa_offset -8
  jmp 1b
  .cfi_endproc

/*
 * Copyright 2018-2021 Yury Gribov
 *
 * The MIT License (MIT)
 *
 * Use of this source code is governed by MIT license that can be
 * found in the LICENSE.txt file.
 */

  .globl XQueryColors
  .p2align 4
  .type XQueryColors, %function
#ifdef IMPLIB_HIDDEN_SHIMS
  .hidden XQueryColors
#endif
XQueryColors:
  .cfi_startproc
  // Intel opt. manual says to
  // "make the fall-through code following a conditional branch be the likely target for a branch with a forward target"
  // to hint static predictor.
  cmpq $0, _libX11_so_tramp_table+2536(%rip)
  je 2f
1:
  jmp *_libX11_so_tramp_table+2536(%rip)
2:
  pushq $317
  .cfi_adjust_cfa_offset 8
  call _libX11_so_save_regs_and_resolve
  addq $8, %rsp
  .cfi_adjust_cfa_offset -8
  jmp 1b
  .cfi_endproc

/*
 * Copyright 2018-2021 Yury Gribov
 *
 * The MIT License (MIT)
 *
 * Use of this source code is governed by MIT license that can be
 * found in the LICENSE.txt file.
 */

  .globl XQueryExtension
  .p2align 4
  .type XQueryExtension, %function
#ifdef IMPLIB_HIDDEN_SHIMS
  .hidden XQueryExtension
#endif
XQueryExtension:
  .cfi_startproc
  // Intel opt. manual says to
  // "make the fall-through code following a conditional branch be the likely target for a branch with a forward target"
  // to hint static predictor.
  cmpq $0, _libX11_so_tramp_table+2544(%rip)
  je 2f
1:
  jmp *_libX11_so_tramp_table+2544(%rip)
2:
  pushq $318
  .cfi_adjust_cfa_offset 8
  call _libX11_so_save_regs_and_resolve
  addq $8, %rsp
  .cfi_adjust_cfa_offset -8
  jmp 1b
  .cfi_endproc

/*
 * Copyright 2018-2021 Yury Gribov
 *
 * The MIT License (MIT)
 *
 * Use of this source code is governed by MIT license that can be
 * found in the LICENSE.txt file.
 */

  .globl XQueryFont
  .p2align 4
  .type XQueryFont, %function
#ifdef IMPLIB_HIDDEN_SHIMS
  .hidden XQueryFont
#endif
XQueryFont:
  .cfi_startproc
  // Intel opt. manual says to
  // "make the fall-through code following a conditional branch be the likely target for a branch with a forward target"
  // to hint static predictor.
  cmpq $0, _libX11_so_tramp_table+2552(%rip)
  je 2f
1:
  jmp *_libX11_so_tramp_table+2552(%rip)
2:
  pushq $319
  .cfi_adjust_cfa_offset 8
  call _libX11_so_save_regs_and_resolve
  addq $8, %rsp
  .cfi_adjust_cfa_offset -8
  jmp 1b
  .cfi_endproc

/*
 * Copyright 2018-2021 Yury Gribov
 *
 * The MIT License (MIT)
 *
 * Use of this source code is governed by MIT license that can be
 * found in the LICENSE.txt file.
 */

  .globl XQueryKeymap
  .p2align 4
  .type XQueryKeymap, %function
#ifdef IMPLIB_HIDDEN_SHIMS
  .hidden XQueryKeymap
#endif
XQueryKeymap:
  .cfi_startproc
  // Intel opt. manual says to
  // "make the fall-through code following a conditional branch be the likely target for a branch with a forward target"
  // to hint static predictor.
  cmpq $0, _libX11_so_tramp_table+2560(%rip)
  je 2f
1:
  jmp *_libX11_so_tramp_table+2560(%rip)
2:
  pushq $320
  .cfi_adjust_cfa_offset 8
  call _libX11_so_save_regs_and_resolve
  addq $8, %rsp
  .cfi_adjust_cfa_offset -8
  jmp 1b
  .cfi_endproc

/*
 * Copyright 2018-2021 Yury Gribov
 *
 * The MIT License (MIT)
 *
 * Use of this source code is governed by MIT license that can be
 * found in the LICENSE.txt file.
 */

  .globl XQueryPointer
  .p2align 4
  .type XQueryPointer, %function
#ifdef IMPLIB_HIDDEN_SHIMS
  .hidden XQueryPointer
#endif
XQueryPointer:
  .cfi_startproc
  // Intel opt. manual says to
  // "make the fall-through code following a conditional branch be the likely target for a branch with a forward target"
  // to hint static predictor.
  cmpq $0, _libX11_so_tramp_table+2568(%rip)
  je 2f
1:
  jmp *_libX11_so_tramp_table+2568(%rip)
2:
  pushq $321
  .cfi_adjust_cfa_offset 8
  call _libX11_so_save_regs_and_resolve
  addq $8, %rsp
  .cfi_adjust_cfa_offset -8
  jmp 1b
  .cfi_endproc

/*
 * Copyright 2018-2021 Yury Gribov
 *
